---
triple:          'x86_64-apple-darwin'
binary-path:     '/Users/yaelfarber/projects/hw8/main'
relocations:
  - { offsetInCU: 0x8495, offset: 0x8495, size: 0x8, addend: 0x0, symName: __ZNSt3__124__put_character_sequenceB8ue170006IcNS_11char_traitsIcEEEERNS_13basic_ostreamIT_T0_EES7_PKS4_m, symObjAddr: 0x78F0, symBinAddr: 0x100008B30, symSize: 0x1F0 }
  - { offsetInCU: 0x10576, offset: 0x10576, size: 0x8, addend: 0x0, symName: __ZNSt3__17advanceB8ue170006INS_21__list_const_iteratorIP7StudentPvEEllvEEvRT_T0_, symObjAddr: 0xE0D0, symBinAddr: 0x10000F310, symSize: 0x30 }
  - { offsetInCU: 0x10645, offset: 0x10645, size: 0x8, addend: 0x0, symName: __ZNSt3__111__introsortINS_17_ClassicAlgPolicyERNS_6__lessIvvEEP2BALb0EEEvT1_S7_T0_NS_15iterator_traitsIS7_E15difference_typeEb, symObjAddr: 0xE520, symBinAddr: 0x10000F760, symSize: 0x450 }
  - { offsetInCU: 0x10773, offset: 0x10773, size: 0x8, addend: 0x0, symName: __ZNSt3__126__insertion_sort_unguardedB8ue170006INS_17_ClassicAlgPolicyERNS_6__lessIvvEEP2BAEEvT1_S7_T0_, symObjAddr: 0xEC70, symBinAddr: 0x10000FEB0, symSize: 0x1A0 }
  - { offsetInCU: 0x1084D, offset: 0x1084D, size: 0x8, addend: 0x0, symName: __ZNSt3__111__sift_downB8ue170006INS_17_ClassicAlgPolicyERNS_6__lessIvvEEP2BAEEvT1_OT0_NS_15iterator_traitsIS7_E15difference_typeES7_, symObjAddr: 0x101E0, symBinAddr: 0x100011420, symSize: 0x270 }
  - { offsetInCU: 0x108FB, offset: 0x108FB, size: 0x8, addend: 0x0, symName: __ZNSt3__117__floyd_sift_downB8ue170006INS_17_ClassicAlgPolicyERNS_6__lessIvvEEP2BAEET1_S7_OT0_NS_15iterator_traitsIS7_E15difference_typeE, symObjAddr: 0x10660, symBinAddr: 0x1000118A0, symSize: 0x100 }
  - { offsetInCU: 0x10993, offset: 0x10993, size: 0x8, addend: 0x0, symName: __ZNSt3__131__partition_with_equals_on_leftB8ue170006INS_17_ClassicAlgPolicyEP2BARNS_6__lessIvvEEEET0_S7_S7_T1_, symObjAddr: 0xF010, symBinAddr: 0x100010250, symSize: 0x2E0 }
  - { offsetInCU: 0x10A50, offset: 0x10A50, size: 0x8, addend: 0x0, symName: __ZNSt3__118__bitset_partitionB8ue170006INS_17_ClassicAlgPolicyEP2BARNS_6__lessIvvEEEENS_4pairIT0_bEES8_S8_T1_, symObjAddr: 0xF2F0, symBinAddr: 0x100010530, symSize: 0x430 }
  - { offsetInCU: 0x10B4D, offset: 0x10B4D, size: 0x8, addend: 0x0, symName: __ZNSt3__124__swap_bitmap_pos_withinB8ue170006INS_17_ClassicAlgPolicyEP2BAEEvRT0_S5_RyS6_, symObjAddr: 0x10D40, symBinAddr: 0x100011F80, symSize: 0x180 }
  - { offsetInCU: 0x10C1A, offset: 0x10C1A, size: 0x8, addend: 0x0, symName: __ZNSt3__132__partition_with_equals_on_rightB8ue170006INS_17_ClassicAlgPolicyEP2BARNS_6__lessIvvEEEENS_4pairIT0_bEES8_S8_T1_, symObjAddr: 0xF720, symBinAddr: 0x100010960, symSize: 0x2D0 }
  - { offsetInCU: 0x10CE7, offset: 0x10CE7, size: 0x8, addend: 0x0, symName: __ZNSt3__127__insertion_sort_incompleteB8ue170006INS_17_ClassicAlgPolicyERNS_6__lessIvvEEP2BAEEbT1_S7_T0_, symObjAddr: 0xF9F0, symBinAddr: 0x100010C30, symSize: 0x370 }
  - { offsetInCU: 0x10DCE, offset: 0x10DCE, size: 0x8, addend: 0x0, symName: __ZNSt3__111__introsortINS_17_ClassicAlgPolicyERNS_6__lessIvvEEP2MALb0EEEvT1_S7_T0_NS_15iterator_traitsIS7_E15difference_typeEb, symObjAddr: 0x112D0, symBinAddr: 0x100012510, symSize: 0x450 }
  - { offsetInCU: 0x10EFC, offset: 0x10EFC, size: 0x8, addend: 0x0, symName: __ZNSt3__126__insertion_sort_unguardedB8ue170006INS_17_ClassicAlgPolicyERNS_6__lessIvvEEP2MAEEvT1_S7_T0_, symObjAddr: 0x11A00, symBinAddr: 0x100012C40, symSize: 0x1A0 }
  - { offsetInCU: 0x10FD6, offset: 0x10FD6, size: 0x8, addend: 0x0, symName: __ZNSt3__111__sift_downB8ue170006INS_17_ClassicAlgPolicyERNS_6__lessIvvEEP2MAEEvT1_OT0_NS_15iterator_traitsIS7_E15difference_typeES7_, symObjAddr: 0x13030, symBinAddr: 0x100014270, symSize: 0x270 }
  - { offsetInCU: 0x11084, offset: 0x11084, size: 0x8, addend: 0x0, symName: __ZNSt3__117__floyd_sift_downB8ue170006INS_17_ClassicAlgPolicyERNS_6__lessIvvEEP2MAEET1_S7_OT0_NS_15iterator_traitsIS7_E15difference_typeE, symObjAddr: 0x134B0, symBinAddr: 0x1000146F0, symSize: 0x100 }
  - { offsetInCU: 0x1111C, offset: 0x1111C, size: 0x8, addend: 0x0, symName: __ZNSt3__131__partition_with_equals_on_leftB8ue170006INS_17_ClassicAlgPolicyEP2MARNS_6__lessIvvEEEET0_S7_S7_T1_, symObjAddr: 0x11DA0, symBinAddr: 0x100012FE0, symSize: 0x2E0 }
  - { offsetInCU: 0x111D9, offset: 0x111D9, size: 0x8, addend: 0x0, symName: __ZNSt3__118__bitset_partitionB8ue170006INS_17_ClassicAlgPolicyEP2MARNS_6__lessIvvEEEENS_4pairIT0_bEES8_S8_T1_, symObjAddr: 0x12080, symBinAddr: 0x1000132C0, symSize: 0x430 }
  - { offsetInCU: 0x112D6, offset: 0x112D6, size: 0x8, addend: 0x0, symName: __ZNSt3__124__swap_bitmap_pos_withinB8ue170006INS_17_ClassicAlgPolicyEP2MAEEvRT0_S5_RyS6_, symObjAddr: 0x13B90, symBinAddr: 0x100014DD0, symSize: 0x180 }
  - { offsetInCU: 0x113A3, offset: 0x113A3, size: 0x8, addend: 0x0, symName: __ZNSt3__132__partition_with_equals_on_rightB8ue170006INS_17_ClassicAlgPolicyEP2MARNS_6__lessIvvEEEENS_4pairIT0_bEES8_S8_T1_, symObjAddr: 0x124B0, symBinAddr: 0x1000136F0, symSize: 0x2D0 }
  - { offsetInCU: 0x11470, offset: 0x11470, size: 0x8, addend: 0x0, symName: __ZNSt3__127__insertion_sort_incompleteB8ue170006INS_17_ClassicAlgPolicyERNS_6__lessIvvEEP2MAEEbT1_S7_T0_, symObjAddr: 0x12780, symBinAddr: 0x1000139C0, symSize: 0x370 }
  - { offsetInCU: 0x11557, offset: 0x11557, size: 0x8, addend: 0x0, symName: __ZNSt3__111__introsortINS_17_ClassicAlgPolicyERNS_6__lessIvvEEP3PHDLb0EEEvT1_S7_T0_NS_15iterator_traitsIS7_E15difference_typeEb, symObjAddr: 0x140C0, symBinAddr: 0x100015300, symSize: 0x450 }
  - { offsetInCU: 0x11685, offset: 0x11685, size: 0x8, addend: 0x0, symName: __ZNSt3__126__insertion_sort_unguardedB8ue170006INS_17_ClassicAlgPolicyERNS_6__lessIvvEEP3PHDEEvT1_S7_T0_, symObjAddr: 0x147E0, symBinAddr: 0x100015A20, symSize: 0x180 }
  - { offsetInCU: 0x1175F, offset: 0x1175F, size: 0x8, addend: 0x0, symName: __ZNSt3__111__sift_downB8ue170006INS_17_ClassicAlgPolicyERNS_6__lessIvvEEP3PHDEEvT1_OT0_NS_15iterator_traitsIS7_E15difference_typeES7_, symObjAddr: 0x15DF0, symBinAddr: 0x100017030, symSize: 0x250 }
  - { offsetInCU: 0x1180D, offset: 0x1180D, size: 0x8, addend: 0x0, symName: __ZNSt3__117__floyd_sift_downB8ue170006INS_17_ClassicAlgPolicyERNS_6__lessIvvEEP3PHDEET1_S7_OT0_NS_15iterator_traitsIS7_E15difference_typeE, symObjAddr: 0x16230, symBinAddr: 0x100017470, symSize: 0x100 }
  - { offsetInCU: 0x118A5, offset: 0x118A5, size: 0x8, addend: 0x0, symName: __ZNSt3__131__partition_with_equals_on_leftB8ue170006INS_17_ClassicAlgPolicyEP3PHDRNS_6__lessIvvEEEET0_S7_S7_T1_, symObjAddr: 0x14B60, symBinAddr: 0x100015DA0, symSize: 0x2D0 }
  - { offsetInCU: 0x11962, offset: 0x11962, size: 0x8, addend: 0x0, symName: __ZNSt3__118__bitset_partitionB8ue170006INS_17_ClassicAlgPolicyEP3PHDRNS_6__lessIvvEEEENS_4pairIT0_bEES8_S8_T1_, symObjAddr: 0x14E30, symBinAddr: 0x100016070, symSize: 0x410 }
  - { offsetInCU: 0x11A5F, offset: 0x11A5F, size: 0x8, addend: 0x0, symName: __ZNSt3__124__swap_bitmap_pos_withinB8ue170006INS_17_ClassicAlgPolicyEP3PHDEEvRT0_S5_RyS6_, symObjAddr: 0x16900, symBinAddr: 0x100017B40, symSize: 0x180 }
  - { offsetInCU: 0x11B2C, offset: 0x11B2C, size: 0x8, addend: 0x0, symName: __ZNSt3__132__partition_with_equals_on_rightB8ue170006INS_17_ClassicAlgPolicyEP3PHDRNS_6__lessIvvEEEENS_4pairIT0_bEES8_S8_T1_, symObjAddr: 0x15240, symBinAddr: 0x100016480, symSize: 0x2C0 }
  - { offsetInCU: 0x11BF9, offset: 0x11BF9, size: 0x8, addend: 0x0, symName: __ZNSt3__127__insertion_sort_incompleteB8ue170006INS_17_ClassicAlgPolicyERNS_6__lessIvvEEP3PHDEEbT1_S7_T0_, symObjAddr: 0x15500, symBinAddr: 0x100016740, symSize: 0x360 }
  - { offsetInCU: 0x14722, offset: 0x14722, size: 0x8, addend: 0x0, symName: __ZNSt3__1lsB8ue170006INS_11char_traitsIcEEEERNS_13basic_ostreamIcT_EES6_PKc, symObjAddr: 0x150, symBinAddr: 0x100001390, symSize: 0x40 }
  - { offsetInCU: 0x14768, offset: 0x14768, size: 0x8, addend: 0x0, symName: __ZNSt3__1rsB8ue170006IcNS_11char_traitsIcEENS_9allocatorIcEEEERNS_13basic_istreamIT_T0_EES9_RNS_12basic_stringIS6_S7_T1_EE, symObjAddr: 0x190, symBinAddr: 0x1000013D0, symSize: 0x2E0 }
  - { offsetInCU: 0x14837, offset: 0x14837, size: 0x8, addend: 0x0, symName: __ZNSt3__14endlB8ue170006IcNS_11char_traitsIcEEEERNS_13basic_ostreamIT_T0_EES7_, symObjAddr: 0x640, symBinAddr: 0x100001880, symSize: 0x50 }
  - { offsetInCU: 0x14877, offset: 0x14877, size: 0x8, addend: 0x0, symName: __ZNSt3__1neB8ue170006IcNS_11char_traitsIcEENS_9allocatorIcEEEEbRKNS_12basic_stringIT_T0_T1_EEPKS6_, symObjAddr: 0x690, symBinAddr: 0x1000018D0, symSize: 0x30 }
  - { offsetInCU: 0x148CF, offset: 0x148CF, size: 0x8, addend: 0x0, symName: __ZNSt3__1lsB8ue170006IcNS_11char_traitsIcEENS_9allocatorIcEEEERNS_13basic_ostreamIT_T0_EES9_RKNS_12basic_stringIS6_S7_T1_EE, symObjAddr: 0x6C0, symBinAddr: 0x100001900, symSize: 0x50 }
  - { offsetInCU: 0x14927, offset: 0x14927, size: 0x8, addend: 0x0, symName: __ZNSt3__1neB8ue170006IcNS_11char_traitsIcEENS_9allocatorIcEEEEbRKNS_12basic_stringIT_T0_T1_EESB_, symObjAddr: 0x1200, symBinAddr: 0x100002440, symSize: 0x30 }
  - { offsetInCU: 0x1497F, offset: 0x1497F, size: 0x8, addend: 0x0, symName: __ZNSt3__1eqB8ue170006IcNS_11char_traitsIcEENS_9allocatorIcEEEEbRKNS_12basic_stringIT_T0_T1_EEPKS6_, symObjAddr: 0x25F0, symBinAddr: 0x100003830, symSize: 0x90 }
  - { offsetInCU: 0x149E6, offset: 0x149E6, size: 0x8, addend: 0x0, symName: __ZNSt3__14sortB8ue170006INS_11__wrap_iterIP2BAEEEEvT_S5_, symObjAddr: 0x2A50, symBinAddr: 0x100003C90, symSize: 0x40 }
  - { offsetInCU: 0x14A28, offset: 0x14A28, size: 0x8, addend: 0x0, symName: __ZNSt3__14sortB8ue170006INS_11__wrap_iterIP2MAEEEEvT_S5_, symObjAddr: 0x2AF0, symBinAddr: 0x100003D30, symSize: 0x40 }
  - { offsetInCU: 0x14A6A, offset: 0x14A6A, size: 0x8, addend: 0x0, symName: __ZNSt3__14sortB8ue170006INS_11__wrap_iterIP3PHDEEEEvT_S5_, symObjAddr: 0x2B90, symBinAddr: 0x100003DD0, symSize: 0x40 }
  - { offsetInCU: 0x15090, offset: 0x15090, size: 0x8, addend: 0x0, symName: __ZNSt3__1neB8ue170006INS_11__wrap_iterIPK2BAEENS1_IPS2_EEEEbRKNS_16reverse_iteratorIT_EERKNS8_IT0_EE, symObjAddr: 0x2D90, symBinAddr: 0x100003FD0, symSize: 0x50 }
  - { offsetInCU: 0x150DC, offset: 0x150DC, size: 0x8, addend: 0x0, symName: __ZNSt3__1neB8ue170006INS_11__wrap_iterIPK2MAEENS1_IPS2_EEEEbRKNS_16reverse_iteratorIT_EERKNS8_IT0_EE, symObjAddr: 0x2ED0, symBinAddr: 0x100004110, symSize: 0x50 }
  - { offsetInCU: 0x15128, offset: 0x15128, size: 0x8, addend: 0x0, symName: __ZNSt3__1neB8ue170006IP3PHDEEbRKNS_11__wrap_iterIT_EES7_, symObjAddr: 0x3010, symBinAddr: 0x100004250, symSize: 0x30 }
  - { offsetInCU: 0x1516B, offset: 0x1516B, size: 0x8, addend: 0x0, symName: __ZNSt3__118__constexpr_strlenB8ue170006EPKc, symObjAddr: 0x36D0, symBinAddr: 0x100004910, symSize: 0x20 }
  - { offsetInCU: 0x15197, offset: 0x15197, size: 0x8, addend: 0x0, symName: __ZNSt3__1eqB8ue170006IP3PHDEEbRKNS_11__wrap_iterIT_EES7_, symObjAddr: 0x3700, symBinAddr: 0x100004940, symSize: 0x40 }
  - { offsetInCU: 0x151DA, offset: 0x151DA, size: 0x8, addend: 0x0, symName: __ZNSt3__1neB8ue170006ERKNS_16__deque_iteratorI3PHDPS1_RS1_PS2_lLl56EEES7_, symObjAddr: 0x3DF0, symBinAddr: 0x100005030, symSize: 0x30 }
  - { offsetInCU: 0x15217, offset: 0x15217, size: 0x8, addend: 0x0, symName: __ZNSt3__1eqB8ue170006ERKNS_16__deque_iteratorI3PHDPS1_RS1_PS2_lLl56EEES7_, symObjAddr: 0x40F0, symBinAddr: 0x100005330, symSize: 0x30 }
  - { offsetInCU: 0x15254, offset: 0x15254, size: 0x8, addend: 0x0, symName: __ZNSt3__112__to_addressB8ue170006I3PHDEEPT_S3_, symObjAddr: 0x4800, symBinAddr: 0x100005A40, symSize: 0x10 }
  - { offsetInCU: 0x15289, offset: 0x15289, size: 0x8, addend: 0x0, symName: __ZNSt3__119__libcpp_deallocateB8ue170006EPvmm, symObjAddr: 0x4980, symBinAddr: 0x100005BC0, symSize: 0x30 }
  - { offsetInCU: 0x152D1, offset: 0x152D1, size: 0x8, addend: 0x0, symName: __ZNSt3__127__do_deallocate_handle_sizeB8ue170006IJEEEvPvmDpT_, symObjAddr: 0x49B0, symBinAddr: 0x100005BF0, symSize: 0x20 }
  - { offsetInCU: 0x1530F, offset: 0x1530F, size: 0x8, addend: 0x0, symName: __ZNSt3__124__libcpp_operator_deleteB8ue170006IJPvEEEvDpT_, symObjAddr: 0x49D0, symBinAddr: 0x100005C10, symSize: 0x20 }
  - { offsetInCU: 0x15344, offset: 0x15344, size: 0x8, addend: 0x0, symName: __ZNSt3__112__to_addressB8ue170006IP3PHDEEPT_S4_, symObjAddr: 0x4C10, symBinAddr: 0x100005E50, symSize: 0x10 }
  - { offsetInCU: 0x15379, offset: 0x15379, size: 0x8, addend: 0x0, symName: __ZNSt3__1neB8ue170006ERKNS_16__deque_iteratorI2MAPS1_RS1_PS2_lLl46EEES7_, symObjAddr: 0x5280, symBinAddr: 0x1000064C0, symSize: 0x30 }
  - { offsetInCU: 0x153B6, offset: 0x153B6, size: 0x8, addend: 0x0, symName: __ZNSt3__1eqB8ue170006ERKNS_16__deque_iteratorI2MAPS1_RS1_PS2_lLl46EEES7_, symObjAddr: 0x5570, symBinAddr: 0x1000067B0, symSize: 0x30 }
  - { offsetInCU: 0x153F3, offset: 0x153F3, size: 0x8, addend: 0x0, symName: __ZNSt3__112__to_addressB8ue170006I2MAEEPT_S3_, symObjAddr: 0x5C70, symBinAddr: 0x100006EB0, symSize: 0x10 }
  - { offsetInCU: 0x15428, offset: 0x15428, size: 0x8, addend: 0x0, symName: __ZNSt3__112__to_addressB8ue170006IP2MAEEPT_S4_, symObjAddr: 0x6000, symBinAddr: 0x100007240, symSize: 0x10 }
  - { offsetInCU: 0x1545D, offset: 0x1545D, size: 0x8, addend: 0x0, symName: __ZNSt3__1neB8ue170006ERKNS_16__deque_iteratorI2BAPS1_RS1_PS2_lLl46EEES7_, symObjAddr: 0x6670, symBinAddr: 0x1000078B0, symSize: 0x30 }
  - { offsetInCU: 0x1549A, offset: 0x1549A, size: 0x8, addend: 0x0, symName: __ZNSt3__1eqB8ue170006ERKNS_16__deque_iteratorI2BAPS1_RS1_PS2_lLl46EEES7_, symObjAddr: 0x6960, symBinAddr: 0x100007BA0, symSize: 0x30 }
  - { offsetInCU: 0x154D7, offset: 0x154D7, size: 0x8, addend: 0x0, symName: __ZNSt3__112__to_addressB8ue170006I2BAEEPT_S3_, symObjAddr: 0x7060, symBinAddr: 0x1000082A0, symSize: 0x10 }
  - { offsetInCU: 0x1550C, offset: 0x1550C, size: 0x8, addend: 0x0, symName: __ZNSt3__112__to_addressB8ue170006IP2BAEEPT_S4_, symObjAddr: 0x73F0, symBinAddr: 0x100008630, symSize: 0x10 }
  - { offsetInCU: 0x15574, offset: 0x15574, size: 0x8, addend: 0x0, symName: __ZNSt3__116__pad_and_outputB8ue170006IcNS_11char_traitsIcEEEENS_19ostreambuf_iteratorIT_T0_EES6_PKS4_S8_S8_RNS_8ios_baseES4_, symObjAddr: 0x7B00, symBinAddr: 0x100008D40, symSize: 0x220 }
  - { offsetInCU: 0x15644, offset: 0x15644, size: 0x8, addend: 0x0, symName: __ZNSt3__112__to_addressB8ue170006IKcEEPT_S3_, symObjAddr: 0x7F60, symBinAddr: 0x1000091A0, symSize: 0x10 }
  - { offsetInCU: 0x156AC, offset: 0x156AC, size: 0x8, addend: 0x0, symName: __ZNSt3__19use_facetB8ue170006INS_5ctypeIcEEEERKT_RKNS_6localeE, symObjAddr: 0x81C0, symBinAddr: 0x100009400, symSize: 0x30 }
  - { offsetInCU: 0x1644B, offset: 0x1644B, size: 0x8, addend: 0x0, symName: __ZNSt3__1eqB8ue170006INS_9allocatorIcEEEEbRKNS_12basic_stringIcNS_11char_traitsIcEET_EES9_, symObjAddr: 0x8820, symBinAddr: 0x100009A60, symSize: 0x110 }
  - { offsetInCU: 0x164DC, offset: 0x164DC, size: 0x8, addend: 0x0, symName: __ZNSt3__117__libcpp_allocateB8ue170006Emm, symObjAddr: 0x8ED0, symBinAddr: 0x10000A110, symSize: 0x20 }
  - { offsetInCU: 0x16519, offset: 0x16519, size: 0x8, addend: 0x0, symName: __ZNSt3__121__libcpp_operator_newB8ue170006IJmEEEPvDpT_, symObjAddr: 0x8F10, symBinAddr: 0x10000A150, symSize: 0x20 }
  - { offsetInCU: 0x16552, offset: 0x16552, size: 0x8, addend: 0x0, symName: __ZNSt3__13maxB8ue170006ImEERKT_S3_S3_, symObjAddr: 0xA550, symBinAddr: 0x10000B790, symSize: 0x30 }
  - { offsetInCU: 0x16595, offset: 0x16595, size: 0x8, addend: 0x0, symName: __ZNSt3__13minB8ue170006ImEERKT_S3_S3_, symObjAddr: 0xA580, symBinAddr: 0x10000B7C0, symSize: 0x30 }
  - { offsetInCU: 0x165D8, offset: 0x165D8, size: 0x8, addend: 0x0, symName: __ZNSt3__13minB8ue170006ImNS_6__lessIvvEEEERKT_S5_S5_T0_, symObjAddr: 0xA5F0, symBinAddr: 0x10000B830, symSize: 0x50 }
  - { offsetInCU: 0x1670A, offset: 0x1670A, size: 0x8, addend: 0x0, symName: __ZNSt3__120__throw_length_errorB8ue170006EPKc, symObjAddr: 0xA6C0, symBinAddr: 0x10000B900, symSize: 0x70 }
  - { offsetInCU: 0x16734, offset: 0x16734, size: 0x8, addend: 0x0, symName: __ZNSt3__13maxB8ue170006ImNS_6__lessIvvEEEERKT_S5_S5_T0_, symObjAddr: 0xA7A0, symBinAddr: 0x10000B9E0, symSize: 0x50 }
  - { offsetInCU: 0x1678E, offset: 0x1678E, size: 0x8, addend: 0x0, symName: __ZNSt3__119__allocate_at_leastB8ue170006INS_9allocatorI2BAEEEENS_19__allocation_resultINS_16allocator_traitsIT_E7pointerEEERS6_m, symObjAddr: 0xA8E0, symBinAddr: 0x10000BB20, symSize: 0x40 }
  - { offsetInCU: 0x167D1, offset: 0x167D1, size: 0x8, addend: 0x0, symName: __ZNSt3__142__uninitialized_allocator_move_if_noexceptB8ue170006INS_9allocatorI2BAEENS_16reverse_iteratorIPS2_EES6_S6_EET2_RT_T0_T1_S7_, symObjAddr: 0xAA70, symBinAddr: 0x10000BCB0, symSize: 0x180 }
  - { offsetInCU: 0x16870, offset: 0x16870, size: 0x8, addend: 0x0, symName: __ZNSt3__14swapB8ue170006IP2BAEENS_9enable_ifIXaasr21is_move_constructibleIT_EE5valuesr18is_move_assignableIS4_EE5valueEvE4typeERS4_S7_, symObjAddr: 0xAC40, symBinAddr: 0x10000BE80, symSize: 0x40 }
  - { offsetInCU: 0x168C1, offset: 0x168C1, size: 0x8, addend: 0x0, symName: __ZNSt3__122__make_exception_guardB8ue170006INS_29_AllocatorDestroyRangeReverseINS_9allocatorI2BAEENS_16reverse_iteratorIPS3_EEEEEENS_28__exception_guard_exceptionsIT_EESA_, symObjAddr: 0xAD20, symBinAddr: 0x10000BF60, symSize: 0x60 }
  - { offsetInCU: 0x168F6, offset: 0x168F6, size: 0x8, addend: 0x0, symName: __ZNSt3__1neB8ue170006IP2BAS2_EEbRKNS_16reverse_iteratorIT_EERKNS3_IT0_EE, symObjAddr: 0xADC0, symBinAddr: 0x10000C000, symSize: 0x40 }
  - { offsetInCU: 0x16942, offset: 0x16942, size: 0x8, addend: 0x0, symName: __ZNSt3__112__to_addressB8ue170006INS_16reverse_iteratorIP2BAEEvEEu7__decayIDTclsr19__to_address_helperIT_EE6__callclsr3stdE7declvalIRKS5_EEEEES7_, symObjAddr: 0xAE00, symBinAddr: 0x10000C040, symSize: 0x20 }
  - { offsetInCU: 0x169A1, offset: 0x169A1, size: 0x8, addend: 0x0, symName: __ZNSt3__119__allocator_destroyB8ue170006INS_9allocatorI2BAEENS_16reverse_iteratorINS4_IPS2_EEEES7_EEvRT_T0_T1_, symObjAddr: 0xB0F0, symBinAddr: 0x10000C330, symSize: 0x70 }
  - { offsetInCU: 0x16A04, offset: 0x16A04, size: 0x8, addend: 0x0, symName: __ZNSt3__1neB8ue170006INS_16reverse_iteratorIP2BAEES4_EEbRKNS1_IT_EERKNS1_IT0_EE, symObjAddr: 0xB190, symBinAddr: 0x10000C3D0, symSize: 0x50 }
  - { offsetInCU: 0x16A50, offset: 0x16A50, size: 0x8, addend: 0x0, symName: __ZNSt3__112__to_addressB8ue170006INS_16reverse_iteratorINS1_IP2BAEEEEvEEu7__decayIDTclsr19__to_address_helperIT_EE6__callclsr3stdE7declvalIRKS6_EEEEES8_, symObjAddr: 0xB1E0, symBinAddr: 0x10000C420, symSize: 0x20 }
  - { offsetInCU: 0x16AAF, offset: 0x16AAF, size: 0x8, addend: 0x0, symName: __ZNSt3__119__allocate_at_leastB8ue170006INS_9allocatorI2MAEEEENS_19__allocation_resultINS_16allocator_traitsIT_E7pointerEEERS6_m, symObjAddr: 0xBC20, symBinAddr: 0x10000CE60, symSize: 0x40 }
  - { offsetInCU: 0x16AF2, offset: 0x16AF2, size: 0x8, addend: 0x0, symName: __ZNSt3__142__uninitialized_allocator_move_if_noexceptB8ue170006INS_9allocatorI2MAEENS_16reverse_iteratorIPS2_EES6_S6_EET2_RT_T0_T1_S7_, symObjAddr: 0xBDB0, symBinAddr: 0x10000CFF0, symSize: 0x180 }
  - { offsetInCU: 0x16B91, offset: 0x16B91, size: 0x8, addend: 0x0, symName: __ZNSt3__14swapB8ue170006IP2MAEENS_9enable_ifIXaasr21is_move_constructibleIT_EE5valuesr18is_move_assignableIS4_EE5valueEvE4typeERS4_S7_, symObjAddr: 0xBF80, symBinAddr: 0x10000D1C0, symSize: 0x40 }
  - { offsetInCU: 0x16BE2, offset: 0x16BE2, size: 0x8, addend: 0x0, symName: __ZNSt3__122__make_exception_guardB8ue170006INS_29_AllocatorDestroyRangeReverseINS_9allocatorI2MAEENS_16reverse_iteratorIPS3_EEEEEENS_28__exception_guard_exceptionsIT_EESA_, symObjAddr: 0xC060, symBinAddr: 0x10000D2A0, symSize: 0x60 }
  - { offsetInCU: 0x16C17, offset: 0x16C17, size: 0x8, addend: 0x0, symName: __ZNSt3__1neB8ue170006IP2MAS2_EEbRKNS_16reverse_iteratorIT_EERKNS3_IT0_EE, symObjAddr: 0xC100, symBinAddr: 0x10000D340, symSize: 0x40 }
  - { offsetInCU: 0x16C63, offset: 0x16C63, size: 0x8, addend: 0x0, symName: __ZNSt3__112__to_addressB8ue170006INS_16reverse_iteratorIP2MAEEvEEu7__decayIDTclsr19__to_address_helperIT_EE6__callclsr3stdE7declvalIRKS5_EEEEES7_, symObjAddr: 0xC140, symBinAddr: 0x10000D380, symSize: 0x20 }
  - { offsetInCU: 0x16CC2, offset: 0x16CC2, size: 0x8, addend: 0x0, symName: __ZNSt3__119__allocator_destroyB8ue170006INS_9allocatorI2MAEENS_16reverse_iteratorINS4_IPS2_EEEES7_EEvRT_T0_T1_, symObjAddr: 0xC430, symBinAddr: 0x10000D670, symSize: 0x70 }
  - { offsetInCU: 0x16D25, offset: 0x16D25, size: 0x8, addend: 0x0, symName: __ZNSt3__1neB8ue170006INS_16reverse_iteratorIP2MAEES4_EEbRKNS1_IT_EERKNS1_IT0_EE, symObjAddr: 0xC4D0, symBinAddr: 0x10000D710, symSize: 0x50 }
  - { offsetInCU: 0x16D71, offset: 0x16D71, size: 0x8, addend: 0x0, symName: __ZNSt3__112__to_addressB8ue170006INS_16reverse_iteratorINS1_IP2MAEEEEvEEu7__decayIDTclsr19__to_address_helperIT_EE6__callclsr3stdE7declvalIRKS6_EEEEES8_, symObjAddr: 0xC520, symBinAddr: 0x10000D760, symSize: 0x20 }
  - { offsetInCU: 0x16DD0, offset: 0x16DD0, size: 0x8, addend: 0x0, symName: __ZNSt3__119__allocate_at_leastB8ue170006INS_9allocatorI3PHDEEEENS_19__allocation_resultINS_16allocator_traitsIT_E7pointerEEERS6_m, symObjAddr: 0xCF60, symBinAddr: 0x10000E1A0, symSize: 0x40 }
  - { offsetInCU: 0x16E13, offset: 0x16E13, size: 0x8, addend: 0x0, symName: __ZNSt3__142__uninitialized_allocator_move_if_noexceptB8ue170006INS_9allocatorI3PHDEENS_16reverse_iteratorIPS2_EES6_S6_EET2_RT_T0_T1_S7_, symObjAddr: 0xD0F0, symBinAddr: 0x10000E330, symSize: 0x180 }
  - { offsetInCU: 0x16EB2, offset: 0x16EB2, size: 0x8, addend: 0x0, symName: __ZNSt3__14swapB8ue170006IP3PHDEENS_9enable_ifIXaasr21is_move_constructibleIT_EE5valuesr18is_move_assignableIS4_EE5valueEvE4typeERS4_S7_, symObjAddr: 0xD2C0, symBinAddr: 0x10000E500, symSize: 0x40 }
  - { offsetInCU: 0x16F03, offset: 0x16F03, size: 0x8, addend: 0x0, symName: __ZNSt3__122__make_exception_guardB8ue170006INS_29_AllocatorDestroyRangeReverseINS_9allocatorI3PHDEENS_16reverse_iteratorIPS3_EEEEEENS_28__exception_guard_exceptionsIT_EESA_, symObjAddr: 0xD3A0, symBinAddr: 0x10000E5E0, symSize: 0x60 }
  - { offsetInCU: 0x16F38, offset: 0x16F38, size: 0x8, addend: 0x0, symName: __ZNSt3__1neB8ue170006IP3PHDS2_EEbRKNS_16reverse_iteratorIT_EERKNS3_IT0_EE, symObjAddr: 0xD440, symBinAddr: 0x10000E680, symSize: 0x40 }
  - { offsetInCU: 0x16F84, offset: 0x16F84, size: 0x8, addend: 0x0, symName: __ZNSt3__112__to_addressB8ue170006INS_16reverse_iteratorIP3PHDEEvEEu7__decayIDTclsr19__to_address_helperIT_EE6__callclsr3stdE7declvalIRKS5_EEEEES7_, symObjAddr: 0xD480, symBinAddr: 0x10000E6C0, symSize: 0x20 }
  - { offsetInCU: 0x16FE3, offset: 0x16FE3, size: 0x8, addend: 0x0, symName: __ZNSt3__119__allocator_destroyB8ue170006INS_9allocatorI3PHDEENS_16reverse_iteratorINS4_IPS2_EEEES7_EEvRT_T0_T1_, symObjAddr: 0xD770, symBinAddr: 0x10000E9B0, symSize: 0x70 }
  - { offsetInCU: 0x17046, offset: 0x17046, size: 0x8, addend: 0x0, symName: __ZNSt3__1neB8ue170006INS_16reverse_iteratorIP3PHDEES4_EEbRKNS1_IT_EERKNS1_IT0_EE, symObjAddr: 0xD810, symBinAddr: 0x10000EA50, symSize: 0x50 }
  - { offsetInCU: 0x17092, offset: 0x17092, size: 0x8, addend: 0x0, symName: __ZNSt3__112__to_addressB8ue170006INS_16reverse_iteratorINS1_IP3PHDEEEEvEEu7__decayIDTclsr19__to_address_helperIT_EE6__callclsr3stdE7declvalIRKS6_EEEEES8_, symObjAddr: 0xD860, symBinAddr: 0x10000EAA0, symSize: 0x20 }
  - { offsetInCU: 0x170F1, offset: 0x170F1, size: 0x8, addend: 0x0, symName: __ZNSt3__1neB8ue170006ERKNS_21__list_const_iteratorIP7StudentPvEES6_, symObjAddr: 0xDC80, symBinAddr: 0x10000EEC0, symSize: 0x30 }
  - { offsetInCU: 0x1712E, offset: 0x1712E, size: 0x8, addend: 0x0, symName: __ZNSt3__14nextB8ue170006INS_21__list_const_iteratorIP7StudentPvEEEENS_9enable_ifIXsr29__has_input_iterator_categoryIT_EE5valueES7_E4typeES7_NS_15iterator_traitsIS7_E15difference_typeE, symObjAddr: 0xDCE0, symBinAddr: 0x10000EF20, symSize: 0x30 }
  - { offsetInCU: 0x17171, offset: 0x17171, size: 0x8, addend: 0x0, symName: __ZNSt3__1eqB8ue170006ERKNS_21__list_const_iteratorIP7StudentPvEES6_, symObjAddr: 0xE0A0, symBinAddr: 0x10000F2E0, symSize: 0x30 }
  - { offsetInCU: 0x171AE, offset: 0x171AE, size: 0x8, addend: 0x0, symName: __ZNSt3__121__convert_to_integralB8ue170006El, symObjAddr: 0xE100, symBinAddr: 0x10000F340, symSize: 0x10 }
  - { offsetInCU: 0x171DA, offset: 0x171DA, size: 0x8, addend: 0x0, symName: __ZNSt3__19__advanceB8ue170006INS_21__list_const_iteratorIP7StudentPvEEEEvRT_NS_15iterator_traitsIS6_E15difference_typeENS_26bidirectional_iterator_tagE, symObjAddr: 0xE110, symBinAddr: 0x10000F350, symSize: 0x80 }
  - { offsetInCU: 0x17223, offset: 0x17223, size: 0x8, addend: 0x0, symName: __ZNSt3__18distanceB8ue170006INS_21__list_const_iteratorIP7StudentPvEEEENS_15iterator_traitsIT_E15difference_typeES7_S7_, symObjAddr: 0xE1B0, symBinAddr: 0x10000F3F0, symSize: 0x40 }
  - { offsetInCU: 0x17266, offset: 0x17266, size: 0x8, addend: 0x0, symName: __ZNSt3__110__distanceB8ue170006INS_21__list_const_iteratorIP7StudentPvEEEENS_15iterator_traitsIT_E15difference_typeES7_S7_NS_18input_iterator_tagE, symObjAddr: 0xE240, symBinAddr: 0x10000F480, symSize: 0x60 }
  - { offsetInCU: 0x172C1, offset: 0x172C1, size: 0x8, addend: 0x0, symName: __ZNSt3__14sortB8ue170006INS_11__wrap_iterIP2BAEENS_6__lessIvvEEEEvT_S7_T0_, symObjAddr: 0xE320, symBinAddr: 0x10000F560, symSize: 0x40 }
  - { offsetInCU: 0x1731B, offset: 0x1731B, size: 0x8, addend: 0x0, symName: __ZNSt3__111__sort_implB8ue170006INS_17_ClassicAlgPolicyENS_11__wrap_iterIP2BAEENS_6__lessIvvEEEEvT0_S8_RT1_, symObjAddr: 0xE360, symBinAddr: 0x10000F5A0, symSize: 0xB0 }
  - { offsetInCU: 0x1737E, offset: 0x1737E, size: 0x8, addend: 0x0, symName: __ZNSt3__123__debug_randomize_rangeB8ue170006INS_17_ClassicAlgPolicyENS_11__wrap_iterIP2BAEES5_EEvT0_T1_, symObjAddr: 0xE410, symBinAddr: 0x10000F650, symSize: 0x10 }
  - { offsetInCU: 0x173CF, offset: 0x173CF, size: 0x8, addend: 0x0, symName: __ZNSt3__115__sort_dispatchB8ue170006INS_17_ClassicAlgPolicyEP2BANS_6__lessIvvEEEEvT0_S6_RT1_, symObjAddr: 0xE420, symBinAddr: 0x10000F660, symSize: 0x60 }
  - { offsetInCU: 0x1744D, offset: 0x1744D, size: 0x8, addend: 0x0, symName: __ZNSt3__113__unwrap_iterB8ue170006INS_11__wrap_iterIP2BAEENS_18__unwrap_iter_implIS4_Lb1EEELi0EEEDTclsrT0_8__unwrapclsr3stdE7declvalIT_EEEES8_, symObjAddr: 0xE480, symBinAddr: 0x10000F6C0, symSize: 0x30 }
  - { offsetInCU: 0x17491, offset: 0x17491, size: 0x8, addend: 0x0, symName: __ZNSt3__135__check_strict_weak_ordering_sortedB8ue170006IP2BANS_6__lessIvvEEEEvT_S5_RT0_, symObjAddr: 0xE4B0, symBinAddr: 0x10000F6F0, symSize: 0x20 }
  - { offsetInCU: 0x174E7, offset: 0x174E7, size: 0x8, addend: 0x0, symName: __ZNSt3__17__log2iB8ue170006IlEET_S1_, symObjAddr: 0xE4D0, symBinAddr: 0x10000F710, symSize: 0x50 }
  - { offsetInCU: 0x1751E, offset: 0x1751E, size: 0x8, addend: 0x0, symName: __ZNSt3__112__libcpp_clzB8ue170006Em, symObjAddr: 0xE970, symBinAddr: 0x10000FBB0, symSize: 0x20 }
  - { offsetInCU: 0x177D0, offset: 0x177D0, size: 0x8, addend: 0x0, symName: __ZNSt3__124__sort3_maybe_branchlessB8ue170006INS_17_ClassicAlgPolicyERNS_6__lessIvvEEP2BAEENS_9enable_ifIXntsr21__use_branchless_sortIT0_T1_EE5valueEvE4typeES9_S9_S9_S8_, symObjAddr: 0xE9F0, symBinAddr: 0x10000FC30, symSize: 0x40 }
  - { offsetInCU: 0x17841, offset: 0x17841, size: 0x8, addend: 0x0, symName: __ZNSt3__124__sort4_maybe_branchlessB8ue170006INS_17_ClassicAlgPolicyERNS_6__lessIvvEEP2BAEENS_9enable_ifIXntsr21__use_branchless_sortIT0_T1_EE5valueEvE4typeES9_S9_S9_S9_S8_, symObjAddr: 0xEA30, symBinAddr: 0x10000FC70, symSize: 0x40 }
  - { offsetInCU: 0x178C0, offset: 0x178C0, size: 0x8, addend: 0x0, symName: __ZNSt3__124__sort5_maybe_branchlessB8ue170006INS_17_ClassicAlgPolicyERNS_6__lessIvvEEP2BAEENS_9enable_ifIXntsr21__use_branchless_sortIT0_T1_EE5valueEvE4typeES9_S9_S9_S9_S9_S8_, symObjAddr: 0xEA70, symBinAddr: 0x10000FCB0, symSize: 0x50 }
  - { offsetInCU: 0x1794D, offset: 0x1794D, size: 0x8, addend: 0x0, symName: __ZNSt3__116__insertion_sortB8ue170006INS_17_ClassicAlgPolicyERNS_6__lessIvvEEP2BAEEvT1_S7_T0_, symObjAddr: 0xEAC0, symBinAddr: 0x10000FD00, symSize: 0x1B0 }
  - { offsetInCU: 0x17A02, offset: 0x17A02, size: 0x8, addend: 0x0, symName: __ZNSt3__114__partial_sortB8ue170006INS_17_ClassicAlgPolicyERNS_6__lessIvvEEP2BAS6_EET1_S7_S7_T2_RT0_, symObjAddr: 0xEE10, symBinAddr: 0x100010050, symSize: 0x90 }
  - { offsetInCU: 0x17A8A, offset: 0x17A8A, size: 0x8, addend: 0x0, symName: __ZNSt3__17__sort3B8ue170006INS_17_ClassicAlgPolicyERNS_6__lessIvvEEP2BAEEjT1_S7_S7_T0_, symObjAddr: 0xEEA0, symBinAddr: 0x1000100E0, symSize: 0x140 }
  - { offsetInCU: 0x17B09, offset: 0x17B09, size: 0x8, addend: 0x0, symName: __ZNSt3__19iter_swapB8ue170006IP2BAS2_EEvT_T0_, symObjAddr: 0xFD60, symBinAddr: 0x100010FA0, symSize: 0x30 }
  - { offsetInCU: 0x17B51, offset: 0x17B51, size: 0x8, addend: 0x0, symName: __ZNSt3__14swapB8ue170006I2BAEENS_9enable_ifIXaasr21is_move_constructibleIT_EE5valuesr18is_move_assignableIS3_EE5valueEvE4typeERS3_S6_, symObjAddr: 0xFD90, symBinAddr: 0x100010FD0, symSize: 0x80 }
  - { offsetInCU: 0x17BA3, offset: 0x17BA3, size: 0x8, addend: 0x0, symName: __ZNSt3__17__sort4B8ue170006INS_17_ClassicAlgPolicyERNS_6__lessIvvEEP2BAEEvT1_S7_S7_S7_T0_, symObjAddr: 0xFE10, symBinAddr: 0x100011050, symSize: 0xD0 }
  - { offsetInCU: 0x17C1E, offset: 0x17C1E, size: 0x8, addend: 0x0, symName: __ZNSt3__17__sort5B8ue170006INS_17_ClassicAlgPolicyERNS_6__lessIvvEEP2BAEEvT1_S7_S7_S7_S7_T0_, symObjAddr: 0xFEE0, symBinAddr: 0x100011120, symSize: 0x100 }
  - { offsetInCU: 0x17CCB, offset: 0x17CCB, size: 0x8, addend: 0x0, symName: __ZNSt3__123__debug_randomize_rangeB8ue170006INS_17_ClassicAlgPolicyEP2BAS3_EEvT0_T1_, symObjAddr: 0x10030, symBinAddr: 0x100011270, symSize: 0x10 }
  - { offsetInCU: 0x17D1C, offset: 0x17D1C, size: 0x8, addend: 0x0, symName: __ZNSt3__119__partial_sort_implB8ue170006INS_17_ClassicAlgPolicyERNS_6__lessIvvEEP2BAS6_EET1_S7_S7_T2_OT0_, symObjAddr: 0x10040, symBinAddr: 0x100011280, symSize: 0x100 }
  - { offsetInCU: 0x17DB2, offset: 0x17DB2, size: 0x8, addend: 0x0, symName: __ZNSt3__111__make_heapB8ue170006INS_17_ClassicAlgPolicyERNS_6__lessIvvEEP2BAEEvT1_S7_OT0_, symObjAddr: 0x10140, symBinAddr: 0x100011380, symSize: 0xA0 }
  - { offsetInCU: 0x17E54, offset: 0x17E54, size: 0x8, addend: 0x0, symName: __ZNSt3__111__sort_heapB8ue170006INS_17_ClassicAlgPolicyERNS_6__lessIvvEEP2BAEEvT1_S7_OT0_, symObjAddr: 0x10450, symBinAddr: 0x100011690, symSize: 0xA0 }
  - { offsetInCU: 0x17EF6, offset: 0x17EF6, size: 0x8, addend: 0x0, symName: __ZNSt3__110__pop_heapB8ue170006INS_17_ClassicAlgPolicyENS_6__lessIvvEEP2BAEEvT1_S6_RT0_NS_15iterator_traitsIS6_E15difference_typeE, symObjAddr: 0x104F0, symBinAddr: 0x100011730, symSize: 0x170 }
  - { offsetInCU: 0x17FA0, offset: 0x17FA0, size: 0x8, addend: 0x0, symName: __ZNSt3__19__sift_upB8ue170006INS_17_ClassicAlgPolicyERNS_6__lessIvvEEP2BAEEvT1_S7_OT0_NS_15iterator_traitsIS7_E15difference_typeE, symObjAddr: 0x10760, symBinAddr: 0x1000119A0, symSize: 0x180 }
  - { offsetInCU: 0x18041, offset: 0x18041, size: 0x8, addend: 0x0, symName: __ZNSt3__122__populate_left_bitsetB8ue170006IRNS_6__lessIvvEEP2BAS4_EEvT0_T_RT1_Ry, symObjAddr: 0x108E0, symBinAddr: 0x100011B20, symSize: 0x90 }
  - { offsetInCU: 0x180FC, offset: 0x180FC, size: 0x8, addend: 0x0, symName: __ZNSt3__123__populate_right_bitsetB8ue170006IRNS_6__lessIvvEEP2BAS4_EEvT0_T_RT1_Ry, symObjAddr: 0x10970, symBinAddr: 0x100011BB0, symSize: 0x90 }
  - { offsetInCU: 0x181B7, offset: 0x181B7, size: 0x8, addend: 0x0, symName: __ZNSt3__117__swap_bitmap_posB8ue170006INS_17_ClassicAlgPolicyEP2BAEEvT0_S4_RyS5_, symObjAddr: 0x10A00, symBinAddr: 0x100011C40, symSize: 0xE0 }
  - { offsetInCU: 0x18258, offset: 0x18258, size: 0x8, addend: 0x0, symName: __ZNSt3__133__bitset_partition_partial_blocksB8ue170006INS_17_ClassicAlgPolicyERNS_6__lessIvvEEP2BAS5_EEvRT1_S8_T0_RT2_RySC_, symObjAddr: 0x10AE0, symBinAddr: 0x100011D20, symSize: 0x260 }
  - { offsetInCU: 0x183DF, offset: 0x183DF, size: 0x8, addend: 0x0, symName: __ZNSt3__19make_pairB8ue170006IRP2BARbEENS_4pairINS_18__unwrap_ref_decayIT_E4typeENS6_IT0_E4typeEEEOS7_OSA_, symObjAddr: 0x10EC0, symBinAddr: 0x100012100, symSize: 0x30 }
  - { offsetInCU: 0x1842E, offset: 0x1842E, size: 0x8, addend: 0x0, symName: __ZNSt3__112__libcpp_ctzB8ue170006Ey, symObjAddr: 0x10EF0, symBinAddr: 0x100012130, symSize: 0x20 }
  - { offsetInCU: 0x1845A, offset: 0x1845A, size: 0x8, addend: 0x0, symName: __ZNSt3__113__libcpp_blsrB8ue170006Ey, symObjAddr: 0x10F10, symBinAddr: 0x100012150, symSize: 0x20 }
  - { offsetInCU: 0x18486, offset: 0x18486, size: 0x8, addend: 0x0, symName: __ZNSt3__112__libcpp_clzB8ue170006Ey, symObjAddr: 0x10F60, symBinAddr: 0x1000121A0, symSize: 0x20 }
  - { offsetInCU: 0x185D9, offset: 0x185D9, size: 0x8, addend: 0x0, symName: __ZNSt3__112__to_addressB8ue170006INS_11__wrap_iterIP2BAEEvEEu7__decayIDTclsr19__to_address_helperIT_EE6__callclsr3stdE7declvalIRKS5_EEEEES7_, symObjAddr: 0x11000, symBinAddr: 0x100012240, symSize: 0x20 }
  - { offsetInCU: 0x186B4, offset: 0x186B4, size: 0x8, addend: 0x0, symName: __ZNSt3__14sortB8ue170006INS_11__wrap_iterIP2MAEENS_6__lessIvvEEEEvT_S7_T0_, symObjAddr: 0x11120, symBinAddr: 0x100012360, symSize: 0x40 }
  - { offsetInCU: 0x1870E, offset: 0x1870E, size: 0x8, addend: 0x0, symName: __ZNSt3__111__sort_implB8ue170006INS_17_ClassicAlgPolicyENS_11__wrap_iterIP2MAEENS_6__lessIvvEEEEvT0_S8_RT1_, symObjAddr: 0x11160, symBinAddr: 0x1000123A0, symSize: 0xB0 }
  - { offsetInCU: 0x18771, offset: 0x18771, size: 0x8, addend: 0x0, symName: __ZNSt3__123__debug_randomize_rangeB8ue170006INS_17_ClassicAlgPolicyENS_11__wrap_iterIP2MAEES5_EEvT0_T1_, symObjAddr: 0x11210, symBinAddr: 0x100012450, symSize: 0x10 }
  - { offsetInCU: 0x187C2, offset: 0x187C2, size: 0x8, addend: 0x0, symName: __ZNSt3__115__sort_dispatchB8ue170006INS_17_ClassicAlgPolicyEP2MANS_6__lessIvvEEEEvT0_S6_RT1_, symObjAddr: 0x11220, symBinAddr: 0x100012460, symSize: 0x60 }
  - { offsetInCU: 0x18840, offset: 0x18840, size: 0x8, addend: 0x0, symName: __ZNSt3__113__unwrap_iterB8ue170006INS_11__wrap_iterIP2MAEENS_18__unwrap_iter_implIS4_Lb1EEELi0EEEDTclsrT0_8__unwrapclsr3stdE7declvalIT_EEEES8_, symObjAddr: 0x11280, symBinAddr: 0x1000124C0, symSize: 0x30 }
  - { offsetInCU: 0x18884, offset: 0x18884, size: 0x8, addend: 0x0, symName: __ZNSt3__135__check_strict_weak_ordering_sortedB8ue170006IP2MANS_6__lessIvvEEEEvT_S5_RT0_, symObjAddr: 0x112B0, symBinAddr: 0x1000124F0, symSize: 0x20 }
  - { offsetInCU: 0x188DA, offset: 0x188DA, size: 0x8, addend: 0x0, symName: __ZNSt3__124__sort3_maybe_branchlessB8ue170006INS_17_ClassicAlgPolicyERNS_6__lessIvvEEP2MAEENS_9enable_ifIXntsr21__use_branchless_sortIT0_T1_EE5valueEvE4typeES9_S9_S9_S8_, symObjAddr: 0x11780, symBinAddr: 0x1000129C0, symSize: 0x40 }
  - { offsetInCU: 0x1894B, offset: 0x1894B, size: 0x8, addend: 0x0, symName: __ZNSt3__124__sort4_maybe_branchlessB8ue170006INS_17_ClassicAlgPolicyERNS_6__lessIvvEEP2MAEENS_9enable_ifIXntsr21__use_branchless_sortIT0_T1_EE5valueEvE4typeES9_S9_S9_S9_S8_, symObjAddr: 0x117C0, symBinAddr: 0x100012A00, symSize: 0x40 }
  - { offsetInCU: 0x189CA, offset: 0x189CA, size: 0x8, addend: 0x0, symName: __ZNSt3__124__sort5_maybe_branchlessB8ue170006INS_17_ClassicAlgPolicyERNS_6__lessIvvEEP2MAEENS_9enable_ifIXntsr21__use_branchless_sortIT0_T1_EE5valueEvE4typeES9_S9_S9_S9_S9_S8_, symObjAddr: 0x11800, symBinAddr: 0x100012A40, symSize: 0x50 }
  - { offsetInCU: 0x18A57, offset: 0x18A57, size: 0x8, addend: 0x0, symName: __ZNSt3__116__insertion_sortB8ue170006INS_17_ClassicAlgPolicyERNS_6__lessIvvEEP2MAEEvT1_S7_T0_, symObjAddr: 0x11850, symBinAddr: 0x100012A90, symSize: 0x1B0 }
  - { offsetInCU: 0x18B0C, offset: 0x18B0C, size: 0x8, addend: 0x0, symName: __ZNSt3__114__partial_sortB8ue170006INS_17_ClassicAlgPolicyERNS_6__lessIvvEEP2MAS6_EET1_S7_S7_T2_RT0_, symObjAddr: 0x11BA0, symBinAddr: 0x100012DE0, symSize: 0x90 }
  - { offsetInCU: 0x18B94, offset: 0x18B94, size: 0x8, addend: 0x0, symName: __ZNSt3__17__sort3B8ue170006INS_17_ClassicAlgPolicyERNS_6__lessIvvEEP2MAEEjT1_S7_S7_T0_, symObjAddr: 0x11C30, symBinAddr: 0x100012E70, symSize: 0x140 }
  - { offsetInCU: 0x18C13, offset: 0x18C13, size: 0x8, addend: 0x0, symName: __ZNSt3__19iter_swapB8ue170006IP2MAS2_EEvT_T0_, symObjAddr: 0x12AF0, symBinAddr: 0x100013D30, symSize: 0x30 }
  - { offsetInCU: 0x18C5B, offset: 0x18C5B, size: 0x8, addend: 0x0, symName: __ZNSt3__14swapB8ue170006I2MAEENS_9enable_ifIXaasr21is_move_constructibleIT_EE5valuesr18is_move_assignableIS3_EE5valueEvE4typeERS3_S6_, symObjAddr: 0x12B20, symBinAddr: 0x100013D60, symSize: 0x80 }
  - { offsetInCU: 0x18CAD, offset: 0x18CAD, size: 0x8, addend: 0x0, symName: __ZNSt3__17__sort4B8ue170006INS_17_ClassicAlgPolicyERNS_6__lessIvvEEP2MAEEvT1_S7_S7_S7_T0_, symObjAddr: 0x12C60, symBinAddr: 0x100013EA0, symSize: 0xD0 }
  - { offsetInCU: 0x18D28, offset: 0x18D28, size: 0x8, addend: 0x0, symName: __ZNSt3__17__sort5B8ue170006INS_17_ClassicAlgPolicyERNS_6__lessIvvEEP2MAEEvT1_S7_S7_S7_S7_T0_, symObjAddr: 0x12D30, symBinAddr: 0x100013F70, symSize: 0x100 }
  - { offsetInCU: 0x18DD5, offset: 0x18DD5, size: 0x8, addend: 0x0, symName: __ZNSt3__123__debug_randomize_rangeB8ue170006INS_17_ClassicAlgPolicyEP2MAS3_EEvT0_T1_, symObjAddr: 0x12E80, symBinAddr: 0x1000140C0, symSize: 0x10 }
  - { offsetInCU: 0x18E26, offset: 0x18E26, size: 0x8, addend: 0x0, symName: __ZNSt3__119__partial_sort_implB8ue170006INS_17_ClassicAlgPolicyERNS_6__lessIvvEEP2MAS6_EET1_S7_S7_T2_OT0_, symObjAddr: 0x12E90, symBinAddr: 0x1000140D0, symSize: 0x100 }
  - { offsetInCU: 0x18EBC, offset: 0x18EBC, size: 0x8, addend: 0x0, symName: __ZNSt3__111__make_heapB8ue170006INS_17_ClassicAlgPolicyERNS_6__lessIvvEEP2MAEEvT1_S7_OT0_, symObjAddr: 0x12F90, symBinAddr: 0x1000141D0, symSize: 0xA0 }
  - { offsetInCU: 0x18F5E, offset: 0x18F5E, size: 0x8, addend: 0x0, symName: __ZNSt3__111__sort_heapB8ue170006INS_17_ClassicAlgPolicyERNS_6__lessIvvEEP2MAEEvT1_S7_OT0_, symObjAddr: 0x132A0, symBinAddr: 0x1000144E0, symSize: 0xA0 }
  - { offsetInCU: 0x19000, offset: 0x19000, size: 0x8, addend: 0x0, symName: __ZNSt3__110__pop_heapB8ue170006INS_17_ClassicAlgPolicyENS_6__lessIvvEEP2MAEEvT1_S6_RT0_NS_15iterator_traitsIS6_E15difference_typeE, symObjAddr: 0x13340, symBinAddr: 0x100014580, symSize: 0x170 }
  - { offsetInCU: 0x190AA, offset: 0x190AA, size: 0x8, addend: 0x0, symName: __ZNSt3__19__sift_upB8ue170006INS_17_ClassicAlgPolicyERNS_6__lessIvvEEP2MAEEvT1_S7_OT0_NS_15iterator_traitsIS7_E15difference_typeE, symObjAddr: 0x135B0, symBinAddr: 0x1000147F0, symSize: 0x180 }
  - { offsetInCU: 0x1914B, offset: 0x1914B, size: 0x8, addend: 0x0, symName: __ZNSt3__122__populate_left_bitsetB8ue170006IRNS_6__lessIvvEEP2MAS4_EEvT0_T_RT1_Ry, symObjAddr: 0x13730, symBinAddr: 0x100014970, symSize: 0x90 }
  - { offsetInCU: 0x19206, offset: 0x19206, size: 0x8, addend: 0x0, symName: __ZNSt3__123__populate_right_bitsetB8ue170006IRNS_6__lessIvvEEP2MAS4_EEvT0_T_RT1_Ry, symObjAddr: 0x137C0, symBinAddr: 0x100014A00, symSize: 0x90 }
  - { offsetInCU: 0x192C1, offset: 0x192C1, size: 0x8, addend: 0x0, symName: __ZNSt3__117__swap_bitmap_posB8ue170006INS_17_ClassicAlgPolicyEP2MAEEvT0_S4_RyS5_, symObjAddr: 0x13850, symBinAddr: 0x100014A90, symSize: 0xE0 }
  - { offsetInCU: 0x19362, offset: 0x19362, size: 0x8, addend: 0x0, symName: __ZNSt3__133__bitset_partition_partial_blocksB8ue170006INS_17_ClassicAlgPolicyERNS_6__lessIvvEEP2MAS5_EEvRT1_S8_T0_RT2_RySC_, symObjAddr: 0x13930, symBinAddr: 0x100014B70, symSize: 0x260 }
  - { offsetInCU: 0x194E9, offset: 0x194E9, size: 0x8, addend: 0x0, symName: __ZNSt3__19make_pairB8ue170006IRP2MARbEENS_4pairINS_18__unwrap_ref_decayIT_E4typeENS6_IT0_E4typeEEEOS7_OSA_, symObjAddr: 0x13D10, symBinAddr: 0x100014F50, symSize: 0x30 }
  - { offsetInCU: 0x1965F, offset: 0x1965F, size: 0x8, addend: 0x0, symName: __ZNSt3__112__to_addressB8ue170006INS_11__wrap_iterIP2MAEEvEEu7__decayIDTclsr19__to_address_helperIT_EE6__callclsr3stdE7declvalIRKS5_EEEEES7_, symObjAddr: 0x13DF0, symBinAddr: 0x100015030, symSize: 0x20 }
  - { offsetInCU: 0x1973A, offset: 0x1973A, size: 0x8, addend: 0x0, symName: __ZNSt3__14sortB8ue170006INS_11__wrap_iterIP3PHDEENS_6__lessIvvEEEEvT_S7_T0_, symObjAddr: 0x13F10, symBinAddr: 0x100015150, symSize: 0x40 }
  - { offsetInCU: 0x19794, offset: 0x19794, size: 0x8, addend: 0x0, symName: __ZNSt3__111__sort_implB8ue170006INS_17_ClassicAlgPolicyENS_11__wrap_iterIP3PHDEENS_6__lessIvvEEEEvT0_S8_RT1_, symObjAddr: 0x13F50, symBinAddr: 0x100015190, symSize: 0xB0 }
  - { offsetInCU: 0x197F7, offset: 0x197F7, size: 0x8, addend: 0x0, symName: __ZNSt3__123__debug_randomize_rangeB8ue170006INS_17_ClassicAlgPolicyENS_11__wrap_iterIP3PHDEES5_EEvT0_T1_, symObjAddr: 0x14000, symBinAddr: 0x100015240, symSize: 0x10 }
  - { offsetInCU: 0x19848, offset: 0x19848, size: 0x8, addend: 0x0, symName: __ZNSt3__115__sort_dispatchB8ue170006INS_17_ClassicAlgPolicyEP3PHDNS_6__lessIvvEEEEvT0_S6_RT1_, symObjAddr: 0x14010, symBinAddr: 0x100015250, symSize: 0x60 }
  - { offsetInCU: 0x198C6, offset: 0x198C6, size: 0x8, addend: 0x0, symName: __ZNSt3__113__unwrap_iterB8ue170006INS_11__wrap_iterIP3PHDEENS_18__unwrap_iter_implIS4_Lb1EEELi0EEEDTclsrT0_8__unwrapclsr3stdE7declvalIT_EEEES8_, symObjAddr: 0x14070, symBinAddr: 0x1000152B0, symSize: 0x30 }
  - { offsetInCU: 0x1990A, offset: 0x1990A, size: 0x8, addend: 0x0, symName: __ZNSt3__135__check_strict_weak_ordering_sortedB8ue170006IP3PHDNS_6__lessIvvEEEEvT_S5_RT0_, symObjAddr: 0x140A0, symBinAddr: 0x1000152E0, symSize: 0x20 }
  - { offsetInCU: 0x19960, offset: 0x19960, size: 0x8, addend: 0x0, symName: __ZNSt3__124__sort3_maybe_branchlessB8ue170006INS_17_ClassicAlgPolicyERNS_6__lessIvvEEP3PHDEENS_9enable_ifIXntsr21__use_branchless_sortIT0_T1_EE5valueEvE4typeES9_S9_S9_S8_, symObjAddr: 0x14570, symBinAddr: 0x1000157B0, symSize: 0x40 }
  - { offsetInCU: 0x199D1, offset: 0x199D1, size: 0x8, addend: 0x0, symName: __ZNSt3__124__sort4_maybe_branchlessB8ue170006INS_17_ClassicAlgPolicyERNS_6__lessIvvEEP3PHDEENS_9enable_ifIXntsr21__use_branchless_sortIT0_T1_EE5valueEvE4typeES9_S9_S9_S9_S8_, symObjAddr: 0x145B0, symBinAddr: 0x1000157F0, symSize: 0x40 }
  - { offsetInCU: 0x19A50, offset: 0x19A50, size: 0x8, addend: 0x0, symName: __ZNSt3__124__sort5_maybe_branchlessB8ue170006INS_17_ClassicAlgPolicyERNS_6__lessIvvEEP3PHDEENS_9enable_ifIXntsr21__use_branchless_sortIT0_T1_EE5valueEvE4typeES9_S9_S9_S9_S9_S8_, symObjAddr: 0x145F0, symBinAddr: 0x100015830, symSize: 0x50 }
  - { offsetInCU: 0x19ADD, offset: 0x19ADD, size: 0x8, addend: 0x0, symName: __ZNSt3__116__insertion_sortB8ue170006INS_17_ClassicAlgPolicyERNS_6__lessIvvEEP3PHDEEvT1_S7_T0_, symObjAddr: 0x14640, symBinAddr: 0x100015880, symSize: 0x1A0 }
  - { offsetInCU: 0x19B92, offset: 0x19B92, size: 0x8, addend: 0x0, symName: __ZNSt3__114__partial_sortB8ue170006INS_17_ClassicAlgPolicyERNS_6__lessIvvEEP3PHDS6_EET1_S7_S7_T2_RT0_, symObjAddr: 0x14960, symBinAddr: 0x100015BA0, symSize: 0x90 }
  - { offsetInCU: 0x19C1A, offset: 0x19C1A, size: 0x8, addend: 0x0, symName: __ZNSt3__17__sort3B8ue170006INS_17_ClassicAlgPolicyERNS_6__lessIvvEEP3PHDEEjT1_S7_S7_T0_, symObjAddr: 0x149F0, symBinAddr: 0x100015C30, symSize: 0x140 }
  - { offsetInCU: 0x19C99, offset: 0x19C99, size: 0x8, addend: 0x0, symName: __ZNSt3__19iter_swapB8ue170006IP3PHDS2_EEvT_T0_, symObjAddr: 0x15860, symBinAddr: 0x100016AA0, symSize: 0x30 }
  - { offsetInCU: 0x19CE1, offset: 0x19CE1, size: 0x8, addend: 0x0, symName: __ZNSt3__14swapB8ue170006I3PHDEENS_9enable_ifIXaasr21is_move_constructibleIT_EE5valuesr18is_move_assignableIS3_EE5valueEvE4typeERS3_S6_, symObjAddr: 0x15890, symBinAddr: 0x100016AD0, symSize: 0x70 }
  - { offsetInCU: 0x19D33, offset: 0x19D33, size: 0x8, addend: 0x0, symName: __ZNSt3__17__sort4B8ue170006INS_17_ClassicAlgPolicyERNS_6__lessIvvEEP3PHDEEvT1_S7_S7_S7_T0_, symObjAddr: 0x15A20, symBinAddr: 0x100016C60, symSize: 0xD0 }
  - { offsetInCU: 0x19DAE, offset: 0x19DAE, size: 0x8, addend: 0x0, symName: __ZNSt3__17__sort5B8ue170006INS_17_ClassicAlgPolicyERNS_6__lessIvvEEP3PHDEEvT1_S7_S7_S7_S7_T0_, symObjAddr: 0x15AF0, symBinAddr: 0x100016D30, symSize: 0x100 }
  - { offsetInCU: 0x19E5B, offset: 0x19E5B, size: 0x8, addend: 0x0, symName: __ZNSt3__123__debug_randomize_rangeB8ue170006INS_17_ClassicAlgPolicyEP3PHDS3_EEvT0_T1_, symObjAddr: 0x15C40, symBinAddr: 0x100016E80, symSize: 0x10 }
  - { offsetInCU: 0x19EAC, offset: 0x19EAC, size: 0x8, addend: 0x0, symName: __ZNSt3__119__partial_sort_implB8ue170006INS_17_ClassicAlgPolicyERNS_6__lessIvvEEP3PHDS6_EET1_S7_S7_T2_OT0_, symObjAddr: 0x15C50, symBinAddr: 0x100016E90, symSize: 0x100 }
  - { offsetInCU: 0x19F42, offset: 0x19F42, size: 0x8, addend: 0x0, symName: __ZNSt3__111__make_heapB8ue170006INS_17_ClassicAlgPolicyERNS_6__lessIvvEEP3PHDEEvT1_S7_OT0_, symObjAddr: 0x15D50, symBinAddr: 0x100016F90, symSize: 0xA0 }
  - { offsetInCU: 0x19FE4, offset: 0x19FE4, size: 0x8, addend: 0x0, symName: __ZNSt3__111__sort_heapB8ue170006INS_17_ClassicAlgPolicyERNS_6__lessIvvEEP3PHDEEvT1_S7_OT0_, symObjAddr: 0x16040, symBinAddr: 0x100017280, symSize: 0xA0 }
  - { offsetInCU: 0x1A086, offset: 0x1A086, size: 0x8, addend: 0x0, symName: __ZNSt3__110__pop_heapB8ue170006INS_17_ClassicAlgPolicyENS_6__lessIvvEEP3PHDEEvT1_S6_RT0_NS_15iterator_traitsIS6_E15difference_typeE, symObjAddr: 0x160E0, symBinAddr: 0x100017320, symSize: 0x150 }
  - { offsetInCU: 0x1A130, offset: 0x1A130, size: 0x8, addend: 0x0, symName: __ZNSt3__19__sift_upB8ue170006INS_17_ClassicAlgPolicyERNS_6__lessIvvEEP3PHDEEvT1_S7_OT0_NS_15iterator_traitsIS7_E15difference_typeE, symObjAddr: 0x16330, symBinAddr: 0x100017570, symSize: 0x170 }
  - { offsetInCU: 0x1A1D1, offset: 0x1A1D1, size: 0x8, addend: 0x0, symName: __ZNSt3__122__populate_left_bitsetB8ue170006IRNS_6__lessIvvEEP3PHDS4_EEvT0_T_RT1_Ry, symObjAddr: 0x164A0, symBinAddr: 0x1000176E0, symSize: 0x90 }
  - { offsetInCU: 0x1A28C, offset: 0x1A28C, size: 0x8, addend: 0x0, symName: __ZNSt3__123__populate_right_bitsetB8ue170006IRNS_6__lessIvvEEP3PHDS4_EEvT0_T_RT1_Ry, symObjAddr: 0x16530, symBinAddr: 0x100017770, symSize: 0x90 }
  - { offsetInCU: 0x1A347, offset: 0x1A347, size: 0x8, addend: 0x0, symName: __ZNSt3__117__swap_bitmap_posB8ue170006INS_17_ClassicAlgPolicyEP3PHDEEvT0_S4_RyS5_, symObjAddr: 0x165C0, symBinAddr: 0x100017800, symSize: 0xE0 }
  - { offsetInCU: 0x1A3E8, offset: 0x1A3E8, size: 0x8, addend: 0x0, symName: __ZNSt3__133__bitset_partition_partial_blocksB8ue170006INS_17_ClassicAlgPolicyERNS_6__lessIvvEEP3PHDS5_EEvRT1_S8_T0_RT2_RySC_, symObjAddr: 0x166A0, symBinAddr: 0x1000178E0, symSize: 0x260 }
  - { offsetInCU: 0x1A56F, offset: 0x1A56F, size: 0x8, addend: 0x0, symName: __ZNSt3__19make_pairB8ue170006IRP3PHDRbEENS_4pairINS_18__unwrap_ref_decayIT_E4typeENS6_IT0_E4typeEEEOS7_OSA_, symObjAddr: 0x16A80, symBinAddr: 0x100017CC0, symSize: 0x30 }
  - { offsetInCU: 0x1A6E5, offset: 0x1A6E5, size: 0x8, addend: 0x0, symName: __ZNSt3__112__to_addressB8ue170006INS_11__wrap_iterIP3PHDEEvEEu7__decayIDTclsr19__to_address_helperIT_EE6__callclsr3stdE7declvalIRKS5_EEEEES7_, symObjAddr: 0x16B60, symBinAddr: 0x100017DA0, symSize: 0x20 }
  - { offsetInCU: 0x1A7DC, offset: 0x1A7DC, size: 0x8, addend: 0x0, symName: __ZNSt3__1neB8ue170006IPK2BAPS1_EEbRKNS_11__wrap_iterIT_EERKNS5_IT0_EE, symObjAddr: 0x175F0, symBinAddr: 0x100018830, symSize: 0x30 }
  - { offsetInCU: 0x1A828, offset: 0x1A828, size: 0x8, addend: 0x0, symName: __ZNSt3__1eqB8ue170006IPK2BAPS1_EEbRKNS_11__wrap_iterIT_EERKNS5_IT0_EE, symObjAddr: 0x17640, symBinAddr: 0x100018880, symSize: 0x40 }
  - { offsetInCU: 0x1AC19, offset: 0x1AC19, size: 0x8, addend: 0x0, symName: __ZNSt3__14swapB8ue170006IPP2BAEENS_9enable_ifIXaasr21is_move_constructibleIT_EE5valuesr18is_move_assignableIS5_EE5valueEvE4typeERS5_S8_, symObjAddr: 0x18A70, symBinAddr: 0x100019CB0, symSize: 0x40 }
  - { offsetInCU: 0x1AC6A, offset: 0x1AC6A, size: 0x8, addend: 0x0, symName: __ZNSt3__14moveB8ue170006IPP2BAS3_EET0_T_S5_S4_, symObjAddr: 0x18B30, symBinAddr: 0x100019D70, symSize: 0x40 }
  - { offsetInCU: 0x1ACC4, offset: 0x1ACC4, size: 0x8, addend: 0x0, symName: __ZNSt3__16__moveB8ue170006INS_17_ClassicAlgPolicyEPP2BAS4_S4_EENS_4pairIT0_T2_EES6_T1_S7_, symObjAddr: 0x18C30, symBinAddr: 0x100019E70, symSize: 0x40 }
  - { offsetInCU: 0x1AD30, offset: 0x1AD30, size: 0x8, addend: 0x0, symName: __ZNSt3__123__dispatch_copy_or_moveB8ue170006INS_17_ClassicAlgPolicyENS_11__move_loopIS1_EENS_14__move_trivialEPP2BAS7_S7_EENS_4pairIT2_T4_EES9_T3_SA_, symObjAddr: 0x18C70, symBinAddr: 0x100019EB0, symSize: 0x40 }
  - { offsetInCU: 0x1ADAE, offset: 0x1ADAE, size: 0x8, addend: 0x0, symName: __ZNSt3__121__unwrap_and_dispatchB8ue170006INS_10__overloadINS_11__move_loopINS_17_ClassicAlgPolicyEEENS_14__move_trivialEEEPP2BAS9_S9_Li0EEENS_4pairIT0_T2_EESB_T1_SC_, symObjAddr: 0x18CB0, symBinAddr: 0x100019EF0, symSize: 0xB0 }
  - { offsetInCU: 0x1AE3D, offset: 0x1AE3D, size: 0x8, addend: 0x0, symName: __ZNSt3__114__unwrap_rangeB8ue170006IPP2BAS3_EENS_4pairIT0_S5_EET_S7_, symObjAddr: 0x18D60, symBinAddr: 0x100019FA0, symSize: 0x50 }
  - { offsetInCU: 0x1B079, offset: 0x1B079, size: 0x8, addend: 0x0, symName: __ZNSt3__113__unwrap_iterB8ue170006IPP2BANS_18__unwrap_iter_implIS3_Lb1EEELi0EEEDTclsrT0_8__unwrapclsr3stdE7declvalIT_EEEES7_, symObjAddr: 0x18DF0, symBinAddr: 0x10001A030, symSize: 0x20 }
  - { offsetInCU: 0x1B0BD, offset: 0x1B0BD, size: 0x8, addend: 0x0, symName: __ZNSt3__19make_pairB8ue170006IPP2BAS3_EENS_4pairINS_18__unwrap_ref_decayIT_E4typeENS5_IT0_E4typeEEEOS6_OS9_, symObjAddr: 0x18E10, symBinAddr: 0x10001A050, symSize: 0x30 }
  - { offsetInCU: 0x1B10C, offset: 0x1B10C, size: 0x8, addend: 0x0, symName: __ZNSt3__114__rewrap_rangeB8ue170006IPP2BAS3_EET_S4_T0_, symObjAddr: 0x18E40, symBinAddr: 0x10001A080, symSize: 0x30 }
  - { offsetInCU: 0x1B158, offset: 0x1B158, size: 0x8, addend: 0x0, symName: __ZNSt3__113__rewrap_iterB8ue170006IPP2BAS3_NS_18__unwrap_iter_implIS3_Lb1EEEEET_S6_T0_, symObjAddr: 0x18E70, symBinAddr: 0x10001A0B0, symSize: 0x40 }
  - { offsetInCU: 0x1B1AD, offset: 0x1B1AD, size: 0x8, addend: 0x0, symName: __ZNSt3__119__copy_trivial_implB8ue170006IP2BAS2_EENS_4pairIPT_PT0_EES5_S5_S7_, symObjAddr: 0x18EB0, symBinAddr: 0x10001A0F0, symSize: 0x70 }
  - { offsetInCU: 0x1B215, offset: 0x1B215, size: 0x8, addend: 0x0, symName: __ZNSt3__119__constexpr_memmoveB8ue170006IP2BAS2_Li0EEEPT_S4_PT0_NS_15__element_countE, symObjAddr: 0x18F20, symBinAddr: 0x10001A160, symSize: 0x50 }
  - { offsetInCU: 0x1B283, offset: 0x1B283, size: 0x8, addend: 0x0, symName: __ZNSt3__19make_pairB8ue170006IRPP2BAS3_EENS_4pairINS_18__unwrap_ref_decayIT_E4typeENS6_IT0_E4typeEEEOS7_OSA_, symObjAddr: 0x18F70, symBinAddr: 0x10001A1B0, symSize: 0x30 }
  - { offsetInCU: 0x1B325, offset: 0x1B325, size: 0x8, addend: 0x0, symName: __ZNSt3__18distanceB8ue170006INS_13move_iteratorIPP2BAEEEENS_15iterator_traitsIT_E15difference_typeES7_S7_, symObjAddr: 0x191B0, symBinAddr: 0x10001A3F0, symSize: 0x40 }
  - { offsetInCU: 0x1B368, offset: 0x1B368, size: 0x8, addend: 0x0, symName: __ZNSt3__110__distanceB8ue170006INS_13move_iteratorIPP2BAEEEENS_15iterator_traitsIT_E15difference_typeES7_S7_NS_26random_access_iterator_tagE, symObjAddr: 0x19390, symBinAddr: 0x10001A5D0, symSize: 0x30 }
  - { offsetInCU: 0x1B3B5, offset: 0x1B3B5, size: 0x8, addend: 0x0, symName: __ZNSt3__1miB8ue170006IPP2BAS3_EEDTmicldtfp_4baseEcldtfp0_4baseEERKNS_13move_iteratorIT_EERKNS5_IT0_EE, symObjAddr: 0x193C0, symBinAddr: 0x10001A600, symSize: 0x40 }
  - { offsetInCU: 0x1B404, offset: 0x1B404, size: 0x8, addend: 0x0, symName: __ZNSt3__113move_backwardB8ue170006IPP2BAS3_EET0_T_S5_S4_, symObjAddr: 0x19460, symBinAddr: 0x10001A6A0, symSize: 0x40 }
  - { offsetInCU: 0x1B45E, offset: 0x1B45E, size: 0x8, addend: 0x0, symName: __ZNSt3__115__move_backwardB8ue170006INS_17_ClassicAlgPolicyEPP2BAS4_S4_EENS_4pairIT0_T2_EES6_T1_S7_, symObjAddr: 0x194A0, symBinAddr: 0x10001A6E0, symSize: 0x40 }
  - { offsetInCU: 0x1B4CA, offset: 0x1B4CA, size: 0x8, addend: 0x0, symName: __ZNSt3__123__dispatch_copy_or_moveB8ue170006INS_17_ClassicAlgPolicyENS_20__move_backward_loopIS1_EENS_23__move_backward_trivialEPP2BAS7_S7_EENS_4pairIT2_T4_EES9_T3_SA_, symObjAddr: 0x194E0, symBinAddr: 0x10001A720, symSize: 0x40 }
  - { offsetInCU: 0x1B548, offset: 0x1B548, size: 0x8, addend: 0x0, symName: __ZNSt3__121__unwrap_and_dispatchB8ue170006INS_10__overloadINS_20__move_backward_loopINS_17_ClassicAlgPolicyEEENS_23__move_backward_trivialEEEPP2BAS9_S9_Li0EEENS_4pairIT0_T2_EESB_T1_SC_, symObjAddr: 0x19520, symBinAddr: 0x10001A760, symSize: 0xB0 }
  - { offsetInCU: 0x1B695, offset: 0x1B695, size: 0x8, addend: 0x0, symName: __ZNSt3__128__copy_backward_trivial_implB8ue170006IP2BAS2_EENS_4pairIPT_PT0_EES5_S5_S7_, symObjAddr: 0x19610, symBinAddr: 0x10001A850, symSize: 0x70 }
  - { offsetInCU: 0x1B6FD, offset: 0x1B6FD, size: 0x8, addend: 0x0, symName: __ZNSt3__19make_pairB8ue170006IRPP2BAS4_EENS_4pairINS_18__unwrap_ref_decayIT_E4typeENS6_IT0_E4typeEEEOS7_OSA_, symObjAddr: 0x19680, symBinAddr: 0x10001A8C0, symSize: 0x30 }
  - { offsetInCU: 0x1B74C, offset: 0x1B74C, size: 0x8, addend: 0x0, symName: __ZNSt3__119__allocate_at_leastB8ue170006INS_9allocatorIP2BAEEEENS_19__allocation_resultINS_16allocator_traitsIT_E7pointerEEERS7_m, symObjAddr: 0x19810, symBinAddr: 0x10001AA50, symSize: 0x40 }
  - { offsetInCU: 0x1B78F, offset: 0x1B78F, size: 0x8, addend: 0x0, symName: __ZNSt3__1neB8ue170006IPK2MAPS1_EEbRKNS_11__wrap_iterIT_EERKNS5_IT0_EE, symObjAddr: 0x19DA0, symBinAddr: 0x10001AFE0, symSize: 0x30 }
  - { offsetInCU: 0x1B7DB, offset: 0x1B7DB, size: 0x8, addend: 0x0, symName: __ZNSt3__1eqB8ue170006IPK2MAPS1_EEbRKNS_11__wrap_iterIT_EERKNS5_IT0_EE, symObjAddr: 0x19DF0, symBinAddr: 0x10001B030, symSize: 0x40 }
  - { offsetInCU: 0x1BBCC, offset: 0x1BBCC, size: 0x8, addend: 0x0, symName: __ZNSt3__14swapB8ue170006IPP2MAEENS_9enable_ifIXaasr21is_move_constructibleIT_EE5valuesr18is_move_assignableIS5_EE5valueEvE4typeERS5_S8_, symObjAddr: 0x1B220, symBinAddr: 0x10001C460, symSize: 0x40 }
  - { offsetInCU: 0x1BC1D, offset: 0x1BC1D, size: 0x8, addend: 0x0, symName: __ZNSt3__14moveB8ue170006IPP2MAS3_EET0_T_S5_S4_, symObjAddr: 0x1B2E0, symBinAddr: 0x10001C520, symSize: 0x40 }
  - { offsetInCU: 0x1BC77, offset: 0x1BC77, size: 0x8, addend: 0x0, symName: __ZNSt3__16__moveB8ue170006INS_17_ClassicAlgPolicyEPP2MAS4_S4_EENS_4pairIT0_T2_EES6_T1_S7_, symObjAddr: 0x1B3E0, symBinAddr: 0x10001C620, symSize: 0x40 }
  - { offsetInCU: 0x1BCE3, offset: 0x1BCE3, size: 0x8, addend: 0x0, symName: __ZNSt3__123__dispatch_copy_or_moveB8ue170006INS_17_ClassicAlgPolicyENS_11__move_loopIS1_EENS_14__move_trivialEPP2MAS7_S7_EENS_4pairIT2_T4_EES9_T3_SA_, symObjAddr: 0x1B420, symBinAddr: 0x10001C660, symSize: 0x40 }
  - { offsetInCU: 0x1BD61, offset: 0x1BD61, size: 0x8, addend: 0x0, symName: __ZNSt3__121__unwrap_and_dispatchB8ue170006INS_10__overloadINS_11__move_loopINS_17_ClassicAlgPolicyEEENS_14__move_trivialEEEPP2MAS9_S9_Li0EEENS_4pairIT0_T2_EESB_T1_SC_, symObjAddr: 0x1B460, symBinAddr: 0x10001C6A0, symSize: 0xB0 }
  - { offsetInCU: 0x1BDF0, offset: 0x1BDF0, size: 0x8, addend: 0x0, symName: __ZNSt3__114__unwrap_rangeB8ue170006IPP2MAS3_EENS_4pairIT0_S5_EET_S7_, symObjAddr: 0x1B510, symBinAddr: 0x10001C750, symSize: 0x50 }
  - { offsetInCU: 0x1BF6E, offset: 0x1BF6E, size: 0x8, addend: 0x0, symName: __ZNSt3__113__unwrap_iterB8ue170006IPP2MANS_18__unwrap_iter_implIS3_Lb1EEELi0EEEDTclsrT0_8__unwrapclsr3stdE7declvalIT_EEEES7_, symObjAddr: 0x1B5A0, symBinAddr: 0x10001C7E0, symSize: 0x20 }
  - { offsetInCU: 0x1BFB2, offset: 0x1BFB2, size: 0x8, addend: 0x0, symName: __ZNSt3__19make_pairB8ue170006IPP2MAS3_EENS_4pairINS_18__unwrap_ref_decayIT_E4typeENS5_IT0_E4typeEEEOS6_OS9_, symObjAddr: 0x1B5C0, symBinAddr: 0x10001C800, symSize: 0x30 }
  - { offsetInCU: 0x1C001, offset: 0x1C001, size: 0x8, addend: 0x0, symName: __ZNSt3__114__rewrap_rangeB8ue170006IPP2MAS3_EET_S4_T0_, symObjAddr: 0x1B5F0, symBinAddr: 0x10001C830, symSize: 0x30 }
  - { offsetInCU: 0x1C04D, offset: 0x1C04D, size: 0x8, addend: 0x0, symName: __ZNSt3__113__rewrap_iterB8ue170006IPP2MAS3_NS_18__unwrap_iter_implIS3_Lb1EEEEET_S6_T0_, symObjAddr: 0x1B620, symBinAddr: 0x10001C860, symSize: 0x40 }
  - { offsetInCU: 0x1C0A2, offset: 0x1C0A2, size: 0x8, addend: 0x0, symName: __ZNSt3__119__copy_trivial_implB8ue170006IP2MAS2_EENS_4pairIPT_PT0_EES5_S5_S7_, symObjAddr: 0x1B660, symBinAddr: 0x10001C8A0, symSize: 0x70 }
  - { offsetInCU: 0x1C10A, offset: 0x1C10A, size: 0x8, addend: 0x0, symName: __ZNSt3__119__constexpr_memmoveB8ue170006IP2MAS2_Li0EEEPT_S4_PT0_NS_15__element_countE, symObjAddr: 0x1B6D0, symBinAddr: 0x10001C910, symSize: 0x50 }
  - { offsetInCU: 0x1C178, offset: 0x1C178, size: 0x8, addend: 0x0, symName: __ZNSt3__19make_pairB8ue170006IRPP2MAS3_EENS_4pairINS_18__unwrap_ref_decayIT_E4typeENS6_IT0_E4typeEEEOS7_OSA_, symObjAddr: 0x1B720, symBinAddr: 0x10001C960, symSize: 0x30 }
  - { offsetInCU: 0x1C21A, offset: 0x1C21A, size: 0x8, addend: 0x0, symName: __ZNSt3__18distanceB8ue170006INS_13move_iteratorIPP2MAEEEENS_15iterator_traitsIT_E15difference_typeES7_S7_, symObjAddr: 0x1B960, symBinAddr: 0x10001CBA0, symSize: 0x40 }
  - { offsetInCU: 0x1C25D, offset: 0x1C25D, size: 0x8, addend: 0x0, symName: __ZNSt3__110__distanceB8ue170006INS_13move_iteratorIPP2MAEEEENS_15iterator_traitsIT_E15difference_typeES7_S7_NS_26random_access_iterator_tagE, symObjAddr: 0x1BB40, symBinAddr: 0x10001CD80, symSize: 0x30 }
  - { offsetInCU: 0x1C2AA, offset: 0x1C2AA, size: 0x8, addend: 0x0, symName: __ZNSt3__1miB8ue170006IPP2MAS3_EEDTmicldtfp_4baseEcldtfp0_4baseEERKNS_13move_iteratorIT_EERKNS5_IT0_EE, symObjAddr: 0x1BB70, symBinAddr: 0x10001CDB0, symSize: 0x40 }
  - { offsetInCU: 0x1C2F9, offset: 0x1C2F9, size: 0x8, addend: 0x0, symName: __ZNSt3__113move_backwardB8ue170006IPP2MAS3_EET0_T_S5_S4_, symObjAddr: 0x1BC10, symBinAddr: 0x10001CE50, symSize: 0x40 }
  - { offsetInCU: 0x1C353, offset: 0x1C353, size: 0x8, addend: 0x0, symName: __ZNSt3__115__move_backwardB8ue170006INS_17_ClassicAlgPolicyEPP2MAS4_S4_EENS_4pairIT0_T2_EES6_T1_S7_, symObjAddr: 0x1BC50, symBinAddr: 0x10001CE90, symSize: 0x40 }
  - { offsetInCU: 0x1C3BF, offset: 0x1C3BF, size: 0x8, addend: 0x0, symName: __ZNSt3__123__dispatch_copy_or_moveB8ue170006INS_17_ClassicAlgPolicyENS_20__move_backward_loopIS1_EENS_23__move_backward_trivialEPP2MAS7_S7_EENS_4pairIT2_T4_EES9_T3_SA_, symObjAddr: 0x1BC90, symBinAddr: 0x10001CED0, symSize: 0x40 }
  - { offsetInCU: 0x1C43D, offset: 0x1C43D, size: 0x8, addend: 0x0, symName: __ZNSt3__121__unwrap_and_dispatchB8ue170006INS_10__overloadINS_20__move_backward_loopINS_17_ClassicAlgPolicyEEENS_23__move_backward_trivialEEEPP2MAS9_S9_Li0EEENS_4pairIT0_T2_EESB_T1_SC_, symObjAddr: 0x1BCD0, symBinAddr: 0x10001CF10, symSize: 0xB0 }
  - { offsetInCU: 0x1C4CC, offset: 0x1C4CC, size: 0x8, addend: 0x0, symName: __ZNSt3__128__copy_backward_trivial_implB8ue170006IP2MAS2_EENS_4pairIPT_PT0_EES5_S5_S7_, symObjAddr: 0x1BDC0, symBinAddr: 0x10001D000, symSize: 0x70 }
  - { offsetInCU: 0x1C534, offset: 0x1C534, size: 0x8, addend: 0x0, symName: __ZNSt3__19make_pairB8ue170006IRPP2MAS4_EENS_4pairINS_18__unwrap_ref_decayIT_E4typeENS6_IT0_E4typeEEEOS7_OSA_, symObjAddr: 0x1BE30, symBinAddr: 0x10001D070, symSize: 0x30 }
  - { offsetInCU: 0x1C583, offset: 0x1C583, size: 0x8, addend: 0x0, symName: __ZNSt3__119__allocate_at_leastB8ue170006INS_9allocatorIP2MAEEEENS_19__allocation_resultINS_16allocator_traitsIT_E7pointerEEERS7_m, symObjAddr: 0x1BFC0, symBinAddr: 0x10001D200, symSize: 0x40 }
  - { offsetInCU: 0x1C96B, offset: 0x1C96B, size: 0x8, addend: 0x0, symName: __ZNSt3__14swapB8ue170006IPP3PHDEENS_9enable_ifIXaasr21is_move_constructibleIT_EE5valuesr18is_move_assignableIS5_EE5valueEvE4typeERS5_S8_, symObjAddr: 0x1D8E0, symBinAddr: 0x10001EB20, symSize: 0x40 }
  - { offsetInCU: 0x1C9BC, offset: 0x1C9BC, size: 0x8, addend: 0x0, symName: __ZNSt3__14moveB8ue170006IPP3PHDS3_EET0_T_S5_S4_, symObjAddr: 0x1D9A0, symBinAddr: 0x10001EBE0, symSize: 0x40 }
  - { offsetInCU: 0x1CA16, offset: 0x1CA16, size: 0x8, addend: 0x0, symName: __ZNSt3__16__moveB8ue170006INS_17_ClassicAlgPolicyEPP3PHDS4_S4_EENS_4pairIT0_T2_EES6_T1_S7_, symObjAddr: 0x1DAA0, symBinAddr: 0x10001ECE0, symSize: 0x40 }
  - { offsetInCU: 0x1CA82, offset: 0x1CA82, size: 0x8, addend: 0x0, symName: __ZNSt3__123__dispatch_copy_or_moveB8ue170006INS_17_ClassicAlgPolicyENS_11__move_loopIS1_EENS_14__move_trivialEPP3PHDS7_S7_EENS_4pairIT2_T4_EES9_T3_SA_, symObjAddr: 0x1DAE0, symBinAddr: 0x10001ED20, symSize: 0x40 }
  - { offsetInCU: 0x1CB00, offset: 0x1CB00, size: 0x8, addend: 0x0, symName: __ZNSt3__121__unwrap_and_dispatchB8ue170006INS_10__overloadINS_11__move_loopINS_17_ClassicAlgPolicyEEENS_14__move_trivialEEEPP3PHDS9_S9_Li0EEENS_4pairIT0_T2_EESB_T1_SC_, symObjAddr: 0x1DB20, symBinAddr: 0x10001ED60, symSize: 0xB0 }
  - { offsetInCU: 0x1CB8F, offset: 0x1CB8F, size: 0x8, addend: 0x0, symName: __ZNSt3__114__unwrap_rangeB8ue170006IPP3PHDS3_EENS_4pairIT0_S5_EET_S7_, symObjAddr: 0x1DBD0, symBinAddr: 0x10001EE10, symSize: 0x50 }
  - { offsetInCU: 0x1CD0D, offset: 0x1CD0D, size: 0x8, addend: 0x0, symName: __ZNSt3__113__unwrap_iterB8ue170006IPP3PHDNS_18__unwrap_iter_implIS3_Lb1EEELi0EEEDTclsrT0_8__unwrapclsr3stdE7declvalIT_EEEES7_, symObjAddr: 0x1DC60, symBinAddr: 0x10001EEA0, symSize: 0x20 }
  - { offsetInCU: 0x1CD51, offset: 0x1CD51, size: 0x8, addend: 0x0, symName: __ZNSt3__19make_pairB8ue170006IPP3PHDS3_EENS_4pairINS_18__unwrap_ref_decayIT_E4typeENS5_IT0_E4typeEEEOS6_OS9_, symObjAddr: 0x1DC80, symBinAddr: 0x10001EEC0, symSize: 0x30 }
  - { offsetInCU: 0x1CDA0, offset: 0x1CDA0, size: 0x8, addend: 0x0, symName: __ZNSt3__114__rewrap_rangeB8ue170006IPP3PHDS3_EET_S4_T0_, symObjAddr: 0x1DCB0, symBinAddr: 0x10001EEF0, symSize: 0x30 }
  - { offsetInCU: 0x1CDEC, offset: 0x1CDEC, size: 0x8, addend: 0x0, symName: __ZNSt3__113__rewrap_iterB8ue170006IPP3PHDS3_NS_18__unwrap_iter_implIS3_Lb1EEEEET_S6_T0_, symObjAddr: 0x1DCE0, symBinAddr: 0x10001EF20, symSize: 0x40 }
  - { offsetInCU: 0x1CE41, offset: 0x1CE41, size: 0x8, addend: 0x0, symName: __ZNSt3__119__copy_trivial_implB8ue170006IP3PHDS2_EENS_4pairIPT_PT0_EES5_S5_S7_, symObjAddr: 0x1DD20, symBinAddr: 0x10001EF60, symSize: 0x70 }
  - { offsetInCU: 0x1CEA9, offset: 0x1CEA9, size: 0x8, addend: 0x0, symName: __ZNSt3__119__constexpr_memmoveB8ue170006IP3PHDS2_Li0EEEPT_S4_PT0_NS_15__element_countE, symObjAddr: 0x1DD90, symBinAddr: 0x10001EFD0, symSize: 0x50 }
  - { offsetInCU: 0x1CF17, offset: 0x1CF17, size: 0x8, addend: 0x0, symName: __ZNSt3__19make_pairB8ue170006IRPP3PHDS3_EENS_4pairINS_18__unwrap_ref_decayIT_E4typeENS6_IT0_E4typeEEEOS7_OSA_, symObjAddr: 0x1DDE0, symBinAddr: 0x10001F020, symSize: 0x30 }
  - { offsetInCU: 0x1CFB9, offset: 0x1CFB9, size: 0x8, addend: 0x0, symName: __ZNSt3__18distanceB8ue170006INS_13move_iteratorIPP3PHDEEEENS_15iterator_traitsIT_E15difference_typeES7_S7_, symObjAddr: 0x1E020, symBinAddr: 0x10001F260, symSize: 0x40 }
  - { offsetInCU: 0x1CFFC, offset: 0x1CFFC, size: 0x8, addend: 0x0, symName: __ZNSt3__110__distanceB8ue170006INS_13move_iteratorIPP3PHDEEEENS_15iterator_traitsIT_E15difference_typeES7_S7_NS_26random_access_iterator_tagE, symObjAddr: 0x1E200, symBinAddr: 0x10001F440, symSize: 0x30 }
  - { offsetInCU: 0x1D049, offset: 0x1D049, size: 0x8, addend: 0x0, symName: __ZNSt3__1miB8ue170006IPP3PHDS3_EEDTmicldtfp_4baseEcldtfp0_4baseEERKNS_13move_iteratorIT_EERKNS5_IT0_EE, symObjAddr: 0x1E230, symBinAddr: 0x10001F470, symSize: 0x40 }
  - { offsetInCU: 0x1D098, offset: 0x1D098, size: 0x8, addend: 0x0, symName: __ZNSt3__113move_backwardB8ue170006IPP3PHDS3_EET0_T_S5_S4_, symObjAddr: 0x1E2D0, symBinAddr: 0x10001F510, symSize: 0x40 }
  - { offsetInCU: 0x1D0F2, offset: 0x1D0F2, size: 0x8, addend: 0x0, symName: __ZNSt3__115__move_backwardB8ue170006INS_17_ClassicAlgPolicyEPP3PHDS4_S4_EENS_4pairIT0_T2_EES6_T1_S7_, symObjAddr: 0x1E310, symBinAddr: 0x10001F550, symSize: 0x40 }
  - { offsetInCU: 0x1D15E, offset: 0x1D15E, size: 0x8, addend: 0x0, symName: __ZNSt3__123__dispatch_copy_or_moveB8ue170006INS_17_ClassicAlgPolicyENS_20__move_backward_loopIS1_EENS_23__move_backward_trivialEPP3PHDS7_S7_EENS_4pairIT2_T4_EES9_T3_SA_, symObjAddr: 0x1E350, symBinAddr: 0x10001F590, symSize: 0x40 }
  - { offsetInCU: 0x1D1DC, offset: 0x1D1DC, size: 0x8, addend: 0x0, symName: __ZNSt3__121__unwrap_and_dispatchB8ue170006INS_10__overloadINS_20__move_backward_loopINS_17_ClassicAlgPolicyEEENS_23__move_backward_trivialEEEPP3PHDS9_S9_Li0EEENS_4pairIT0_T2_EESB_T1_SC_, symObjAddr: 0x1E390, symBinAddr: 0x10001F5D0, symSize: 0xB0 }
  - { offsetInCU: 0x1D26B, offset: 0x1D26B, size: 0x8, addend: 0x0, symName: __ZNSt3__128__copy_backward_trivial_implB8ue170006IP3PHDS2_EENS_4pairIPT_PT0_EES5_S5_S7_, symObjAddr: 0x1E480, symBinAddr: 0x10001F6C0, symSize: 0x70 }
  - { offsetInCU: 0x1D2D3, offset: 0x1D2D3, size: 0x8, addend: 0x0, symName: __ZNSt3__19make_pairB8ue170006IRPP3PHDS4_EENS_4pairINS_18__unwrap_ref_decayIT_E4typeENS6_IT0_E4typeEEEOS7_OSA_, symObjAddr: 0x1E4F0, symBinAddr: 0x10001F730, symSize: 0x30 }
  - { offsetInCU: 0x1D322, offset: 0x1D322, size: 0x8, addend: 0x0, symName: __ZNSt3__119__allocate_at_leastB8ue170006INS_9allocatorIP3PHDEEEENS_19__allocation_resultINS_16allocator_traitsIT_E7pointerEEERS7_m, symObjAddr: 0x1E680, symBinAddr: 0x10001F8C0, symSize: 0x40 }
  - { offsetInCU: 0x1D8BB, offset: 0x1D8BB, size: 0x8, addend: 0x0, symName: __ZSt28__throw_bad_array_new_lengthB8ue170006v, symObjAddr: 0x8E90, symBinAddr: 0x10000A0D0, symSize: 0x40 }
  - { offsetInCU: 0x1EE3E, offset: 0x1EE3E, size: 0x8, addend: 0x0, symName: __ZNSt3__16vectorI2BANS_9allocatorIS1_EEE26__swap_out_circular_bufferERNS_14__split_bufferIS1_RS3_EE, symObjAddr: 0xA390, symBinAddr: 0x10000B5D0, symSize: 0x120 }
  - { offsetInCU: 0x1EED1, offset: 0x1EED1, size: 0x8, addend: 0x0, symName: __ZNSt3__16vectorI2MANS_9allocatorIS1_EEE26__swap_out_circular_bufferERNS_14__split_bufferIS1_RS3_EE, symObjAddr: 0xB8E0, symBinAddr: 0x10000CB20, symSize: 0x120 }
  - { offsetInCU: 0x1EF64, offset: 0x1EF64, size: 0x8, addend: 0x0, symName: __ZNSt3__16vectorI3PHDNS_9allocatorIS1_EEE26__swap_out_circular_bufferERNS_14__split_bufferIS1_RS3_EE, symObjAddr: 0xCC20, symBinAddr: 0x10000DE60, symSize: 0x120 }
  - { offsetInCU: 0x21641, offset: 0x21641, size: 0x8, addend: 0x0, symName: __ZN7StudentC2ERKS_, symObjAddr: 0x0, symBinAddr: 0x100001240, symSize: 0xA0 }
  - { offsetInCU: 0x2167B, offset: 0x2167B, size: 0x8, addend: 0x0, symName: __ZN7Student5inputEv, symObjAddr: 0xA0, symBinAddr: 0x1000012E0, symSize: 0xB0 }
  - { offsetInCU: 0x216B1, offset: 0x216B1, size: 0x8, addend: 0x0, symName: __ZNK7Student5printEv, symObjAddr: 0x470, symBinAddr: 0x1000016B0, symSize: 0x1B0 }
  - { offsetInCU: 0x216D9, offset: 0x216D9, size: 0x8, addend: 0x0, symName: __ZNSt3__113basic_ostreamIcNS_11char_traitsIcEEElsB8ue170006EPFRS3_S4_E, symObjAddr: 0x620, symBinAddr: 0x100001860, symSize: 0x20 }
  - { offsetInCU: 0x2170D, offset: 0x2170D, size: 0x8, addend: 0x0, symName: __ZN2BAC2Ev, symObjAddr: 0x710, symBinAddr: 0x100001950, symSize: 0x80 }
  - { offsetInCU: 0x21739, offset: 0x21739, size: 0x8, addend: 0x0, symName: __ZN7StudentC2Ev, symObjAddr: 0x790, symBinAddr: 0x1000019D0, symSize: 0x90 }
  - { offsetInCU: 0x21763, offset: 0x21763, size: 0x8, addend: 0x0, symName: __ZN7StudentD2Ev, symObjAddr: 0x820, symBinAddr: 0x100001A60, symSize: 0x40 }
  - { offsetInCU: 0x2178D, offset: 0x2178D, size: 0x8, addend: 0x0, symName: __ZN2BAC1Ev, symObjAddr: 0x860, symBinAddr: 0x100001AA0, symSize: 0x20 }
  - { offsetInCU: 0x217B9, offset: 0x217B9, size: 0x8, addend: 0x0, symName: __ZN2BAD2Ev, symObjAddr: 0x880, symBinAddr: 0x100001AC0, symSize: 0x50 }
  - { offsetInCU: 0x217E5, offset: 0x217E5, size: 0x8, addend: 0x0, symName: __ZN2BAD1Ev, symObjAddr: 0x8D0, symBinAddr: 0x100001B10, symSize: 0x20 }
  - { offsetInCU: 0x21811, offset: 0x21811, size: 0x8, addend: 0x0, symName: __ZN2BAD0Ev, symObjAddr: 0x8F0, symBinAddr: 0x100001B30, symSize: 0x30 }
  - { offsetInCU: 0x2183D, offset: 0x2183D, size: 0x8, addend: 0x0, symName: __ZNK2BA5milgaEv, symObjAddr: 0x920, symBinAddr: 0x100001B60, symSize: 0xA0 }
  - { offsetInCU: 0x2188F, offset: 0x2188F, size: 0x8, addend: 0x0, symName: __ZN2BA5inputEv, symObjAddr: 0x9C0, symBinAddr: 0x100001C00, symSize: 0xF0 }
  - { offsetInCU: 0x218E1, offset: 0x218E1, size: 0x8, addend: 0x0, symName: __ZNK7Student10getCoursesEv, symObjAddr: 0xAB0, symBinAddr: 0x100001CF0, symSize: 0x20 }
  - { offsetInCU: 0x21907, offset: 0x21907, size: 0x8, addend: 0x0, symName: __ZNK2BA5printEv, symObjAddr: 0xAD0, symBinAddr: 0x100001D10, symSize: 0xC0 }
  - { offsetInCU: 0x2194B, offset: 0x2194B, size: 0x8, addend: 0x0, symName: __ZN2BAC2ERKS_, symObjAddr: 0xB90, symBinAddr: 0x100001DD0, symSize: 0x130 }
  - { offsetInCU: 0x219A1, offset: 0x219A1, size: 0x8, addend: 0x0, symName: __ZN2BAC1ERKS_, symObjAddr: 0xCC0, symBinAddr: 0x100001F00, symSize: 0x30 }
  - { offsetInCU: 0x219DB, offset: 0x219DB, size: 0x8, addend: 0x0, symName: __ZN2BAC2EOS_, symObjAddr: 0xCF0, symBinAddr: 0x100001F30, symSize: 0xC0 }
  - { offsetInCU: 0x21A15, offset: 0x21A15, size: 0x8, addend: 0x0, symName: __ZN2BAC1EOS_, symObjAddr: 0xDB0, symBinAddr: 0x100001FF0, symSize: 0x30 }
  - { offsetInCU: 0x21A4F, offset: 0x21A4F, size: 0x8, addend: 0x0, symName: __ZN2BAaSERS_, symObjAddr: 0xDE0, symBinAddr: 0x100002020, symSize: 0xE0 }
  - { offsetInCU: 0x21AA1, offset: 0x21AA1, size: 0x8, addend: 0x0, symName: __ZN2BA7setSizeEi, symObjAddr: 0xEC0, symBinAddr: 0x100002100, symSize: 0x20 }
  - { offsetInCU: 0x21AD5, offset: 0x21AD5, size: 0x8, addend: 0x0, symName: __ZNK2BA7getSizeEv, symObjAddr: 0xEE0, symBinAddr: 0x100002120, symSize: 0x20 }
  - { offsetInCU: 0x21AFB, offset: 0x21AFB, size: 0x8, addend: 0x0, symName: __ZNK2BA9getGradesEv, symObjAddr: 0xF00, symBinAddr: 0x100002140, symSize: 0x20 }
  - { offsetInCU: 0x21B21, offset: 0x21B21, size: 0x8, addend: 0x0, symName: __ZN2BAaSEOS_, symObjAddr: 0xF20, symBinAddr: 0x100002160, symSize: 0xB0 }
  - { offsetInCU: 0x21B57, offset: 0x21B57, size: 0x8, addend: 0x0, symName: __ZNK2BA13averageGradesEv, symObjAddr: 0xFD0, symBinAddr: 0x100002210, symSize: 0x90 }
  - { offsetInCU: 0x21BA9, offset: 0x21BA9, size: 0x8, addend: 0x0, symName: __ZNK2BAltERK7Student, symObjAddr: 0x1060, symBinAddr: 0x1000022A0, symSize: 0x1A0 }
  - { offsetInCU: 0x21BDF, offset: 0x21BDF, size: 0x8, addend: 0x0, symName: __ZNK2MA5milgaEv, symObjAddr: 0x1230, symBinAddr: 0x100002470, symSize: 0xB0 }
  - { offsetInCU: 0x21C31, offset: 0x21C31, size: 0x8, addend: 0x0, symName: __ZN2MA5inputEv, symObjAddr: 0x12E0, symBinAddr: 0x100002520, symSize: 0x50 }
  - { offsetInCU: 0x21C59, offset: 0x21C59, size: 0x8, addend: 0x0, symName: __ZNK2MA5printEv, symObjAddr: 0x1330, symBinAddr: 0x100002570, symSize: 0x80 }
  - { offsetInCU: 0x21C81, offset: 0x21C81, size: 0x8, addend: 0x0, symName: __ZNK3PHD5milgaEv, symObjAddr: 0x13B0, symBinAddr: 0x1000025F0, symSize: 0x50 }
  - { offsetInCU: 0x21CA9, offset: 0x21CA9, size: 0x8, addend: 0x0, symName: __ZN3PHD5inputEv, symObjAddr: 0x1400, symBinAddr: 0x100002640, symSize: 0x80 }
  - { offsetInCU: 0x21CDF, offset: 0x21CDF, size: 0x8, addend: 0x0, symName: __ZNK3PHD5printEv, symObjAddr: 0x1480, symBinAddr: 0x1000026C0, symSize: 0x50 }
  - { offsetInCU: 0x21D07, offset: 0x21D07, size: 0x8, addend: 0x0, symName: __ZNK3PHDltERK7Student, symObjAddr: 0x14D0, symBinAddr: 0x100002710, symSize: 0x1A0 }
  - { offsetInCU: 0x21D3D, offset: 0x21D3D, size: 0x8, addend: 0x0, symName: _main, symObjAddr: 0x1670, symBinAddr: 0x1000028B0, symSize: 0xB80 }
  - { offsetInCU: 0x21EA6, offset: 0x21EA6, size: 0x8, addend: 0x0, symName: __ZNSt3__14listIP7StudentNS_9allocatorIS2_EEEC1B8ue170006Ev, symObjAddr: 0x21F0, symBinAddr: 0x100003430, symSize: 0x20 }
  - { offsetInCU: 0x21ED0, offset: 0x21ED0, size: 0x8, addend: 0x0, symName: __ZNSt3__115__list_iteratorIP7StudentPvEC1B8ue170006Ev, symObjAddr: 0x2210, symBinAddr: 0x100003450, symSize: 0x20 }
  - { offsetInCU: 0x21EFA, offset: 0x21EFA, size: 0x8, addend: 0x0, symName: __ZNSt3__14listIP7StudentNS_9allocatorIS2_EEE5beginB8ue170006Ev, symObjAddr: 0x2230, symBinAddr: 0x100003470, symSize: 0x30 }
  - { offsetInCU: 0x21F20, offset: 0x21F20, size: 0x8, addend: 0x0, symName: __ZNSt3__14listIP7StudentNS_9allocatorIS2_EEE9push_backEOS2_, symObjAddr: 0x2260, symBinAddr: 0x1000034A0, symSize: 0x100 }
  - { offsetInCU: 0x21F74, offset: 0x21F74, size: 0x8, addend: 0x0, symName: __Z10addStudentv, symObjAddr: 0x2360, symBinAddr: 0x1000035A0, symSize: 0x1A0 }
  - { offsetInCU: 0x21FED, offset: 0x21FED, size: 0x8, addend: 0x0, symName: __ZNSt3__115__list_iteratorIP7StudentPvEmmB8ue170006Ei, symObjAddr: 0x2500, symBinAddr: 0x100003740, symSize: 0x30 }
  - { offsetInCU: 0x2202E, offset: 0x2202E, size: 0x8, addend: 0x0, symName: __ZNSt3__115__list_iteratorIP7StudentPvEppB8ue170006Ei, symObjAddr: 0x2530, symBinAddr: 0x100003770, symSize: 0x30 }
  - { offsetInCU: 0x2206F, offset: 0x2206F, size: 0x8, addend: 0x0, symName: __ZNKSt3__115__list_iteratorIP7StudentPvEdeB8ue170006Ev, symObjAddr: 0x2560, symBinAddr: 0x1000037A0, symSize: 0x30 }
  - { offsetInCU: 0x22095, offset: 0x22095, size: 0x8, addend: 0x0, symName: __ZNSt3__16vectorI2BANS_9allocatorIS1_EEEC1B8ue170006Ev, symObjAddr: 0x2590, symBinAddr: 0x1000037D0, symSize: 0x20 }
  - { offsetInCU: 0x220BF, offset: 0x220BF, size: 0x8, addend: 0x0, symName: __ZNSt3__16vectorI2MANS_9allocatorIS1_EEEC1B8ue170006Ev, symObjAddr: 0x25B0, symBinAddr: 0x1000037F0, symSize: 0x20 }
  - { offsetInCU: 0x220E9, offset: 0x220E9, size: 0x8, addend: 0x0, symName: __ZNSt3__16vectorI3PHDNS_9allocatorIS1_EEEC1B8ue170006Ev, symObjAddr: 0x25D0, symBinAddr: 0x100003810, symSize: 0x20 }
  - { offsetInCU: 0x22113, offset: 0x22113, size: 0x8, addend: 0x0, symName: __ZNSt3__16vectorI2BANS_9allocatorIS1_EEE9push_backB8ue170006ERKS1_, symObjAddr: 0x2680, symBinAddr: 0x1000038C0, symSize: 0x60 }
  - { offsetInCU: 0x2214A, offset: 0x2214A, size: 0x8, addend: 0x0, symName: __ZNSt3__16vectorI2MANS_9allocatorIS1_EEE9push_backB8ue170006ERKS1_, symObjAddr: 0x26E0, symBinAddr: 0x100003920, symSize: 0x60 }
  - { offsetInCU: 0x22181, offset: 0x22181, size: 0x8, addend: 0x0, symName: __ZNSt3__16vectorI3PHDNS_9allocatorIS1_EEE9push_backB8ue170006ERKS1_, symObjAddr: 0x2740, symBinAddr: 0x100003980, symSize: 0x60 }
  - { offsetInCU: 0x221B8, offset: 0x221B8, size: 0x8, addend: 0x0, symName: __ZNKSt3__14listIP7StudentNS_9allocatorIS2_EEE5emptyB8ue170006Ev, symObjAddr: 0x27A0, symBinAddr: 0x1000039E0, symSize: 0x20 }
  - { offsetInCU: 0x221DE, offset: 0x221DE, size: 0x8, addend: 0x0, symName: __ZNSt3__14listIP7StudentNS_9allocatorIS2_EEE6removeERKS2_, symObjAddr: 0x27C0, symBinAddr: 0x100003A00, symSize: 0x290 }
  - { offsetInCU: 0x2225F, offset: 0x2225F, size: 0x8, addend: 0x0, symName: __ZNSt3__16vectorI2BANS_9allocatorIS1_EEE5beginB8ue170006Ev, symObjAddr: 0x2A90, symBinAddr: 0x100003CD0, symSize: 0x30 }
  - { offsetInCU: 0x22287, offset: 0x22287, size: 0x8, addend: 0x0, symName: __ZNSt3__16vectorI2BANS_9allocatorIS1_EEE3endB8ue170006Ev, symObjAddr: 0x2AC0, symBinAddr: 0x100003D00, symSize: 0x30 }
  - { offsetInCU: 0x222AF, offset: 0x222AF, size: 0x8, addend: 0x0, symName: __ZNSt3__16vectorI2MANS_9allocatorIS1_EEE5beginB8ue170006Ev, symObjAddr: 0x2B30, symBinAddr: 0x100003D70, symSize: 0x30 }
  - { offsetInCU: 0x222D7, offset: 0x222D7, size: 0x8, addend: 0x0, symName: __ZNSt3__16vectorI2MANS_9allocatorIS1_EEE3endB8ue170006Ev, symObjAddr: 0x2B60, symBinAddr: 0x100003DA0, symSize: 0x30 }
  - { offsetInCU: 0x222FF, offset: 0x222FF, size: 0x8, addend: 0x0, symName: __ZNSt3__16vectorI3PHDNS_9allocatorIS1_EEE5beginB8ue170006Ev, symObjAddr: 0x2BD0, symBinAddr: 0x100003E10, symSize: 0x30 }
  - { offsetInCU: 0x22327, offset: 0x22327, size: 0x8, addend: 0x0, symName: __ZNSt3__16vectorI3PHDNS_9allocatorIS1_EEE3endB8ue170006Ev, symObjAddr: 0x2C00, symBinAddr: 0x100003E40, symSize: 0x30 }
  - { offsetInCU: 0x2238B, offset: 0x2238B, size: 0x8, addend: 0x0, symName: __ZNSt3__15queueI2BANS_5dequeIS1_NS_9allocatorIS1_EEEEEC1B8ue170006Ev, symObjAddr: 0x2C30, symBinAddr: 0x100003E70, symSize: 0x20 }
  - { offsetInCU: 0x223F1, offset: 0x223F1, size: 0x8, addend: 0x0, symName: __ZNSt3__15queueI2MANS_5dequeIS1_NS_9allocatorIS1_EEEEEC1B8ue170006Ev, symObjAddr: 0x2C50, symBinAddr: 0x100003E90, symSize: 0x20 }
  - { offsetInCU: 0x22457, offset: 0x22457, size: 0x8, addend: 0x0, symName: __ZNSt3__15stackI3PHDNS_5dequeIS1_NS_9allocatorIS1_EEEEEC1B8ue170006Ev, symObjAddr: 0x2C70, symBinAddr: 0x100003EB0, symSize: 0x20 }
  - { offsetInCU: 0x22481, offset: 0x22481, size: 0x8, addend: 0x0, symName: __ZNSt3__16vectorI2BANS_9allocatorIS1_EEE6rbeginB8ue170006Ev, symObjAddr: 0x2C90, symBinAddr: 0x100003ED0, symSize: 0x50 }
  - { offsetInCU: 0x224AC, offset: 0x224AC, size: 0x8, addend: 0x0, symName: __ZNSt3__116reverse_iteratorINS_11__wrap_iterIPK2BAEEEC1B8ue170006INS1_IPS2_EEvEERKNS0_IT_EE, symObjAddr: 0x2CE0, symBinAddr: 0x100003F20, symSize: 0x30 }
  - { offsetInCU: 0x224EE, offset: 0x224EE, size: 0x8, addend: 0x0, symName: __ZNSt3__16vectorI2MANS_9allocatorIS1_EEE6rbeginB8ue170006Ev, symObjAddr: 0x2D10, symBinAddr: 0x100003F50, symSize: 0x50 }
  - { offsetInCU: 0x22519, offset: 0x22519, size: 0x8, addend: 0x0, symName: __ZNSt3__116reverse_iteratorINS_11__wrap_iterIPK2MAEEEC1B8ue170006INS1_IPS2_EEvEERKNS0_IT_EE, symObjAddr: 0x2D60, symBinAddr: 0x100003FA0, symSize: 0x30 }
  - { offsetInCU: 0x2255B, offset: 0x2255B, size: 0x8, addend: 0x0, symName: __ZNSt3__16vectorI2BANS_9allocatorIS1_EEE4rendB8ue170006Ev, symObjAddr: 0x2DE0, symBinAddr: 0x100004020, symSize: 0x50 }
  - { offsetInCU: 0x22581, offset: 0x22581, size: 0x8, addend: 0x0, symName: __ZNSt3__15queueI2BANS_5dequeIS1_NS_9allocatorIS1_EEEEE4pushB8ue170006ERKS1_, symObjAddr: 0x2E30, symBinAddr: 0x100004070, symSize: 0x30 }
  - { offsetInCU: 0x225B6, offset: 0x225B6, size: 0x8, addend: 0x0, symName: __ZNKSt3__116reverse_iteratorINS_11__wrap_iterIPK2BAEEEdeB8ue170006Ev, symObjAddr: 0x2E60, symBinAddr: 0x1000040A0, symSize: 0x30 }
  - { offsetInCU: 0x225EA, offset: 0x225EA, size: 0x8, addend: 0x0, symName: __ZNSt3__116reverse_iteratorINS_11__wrap_iterIPK2BAEEEppB8ue170006Ei, symObjAddr: 0x2E90, symBinAddr: 0x1000040D0, symSize: 0x40 }
  - { offsetInCU: 0x22628, offset: 0x22628, size: 0x8, addend: 0x0, symName: __ZNSt3__16vectorI2MANS_9allocatorIS1_EEE4rendB8ue170006Ev, symObjAddr: 0x2F20, symBinAddr: 0x100004160, symSize: 0x50 }
  - { offsetInCU: 0x2264E, offset: 0x2264E, size: 0x8, addend: 0x0, symName: __ZNSt3__15queueI2MANS_5dequeIS1_NS_9allocatorIS1_EEEEE4pushB8ue170006ERKS1_, symObjAddr: 0x2F70, symBinAddr: 0x1000041B0, symSize: 0x30 }
  - { offsetInCU: 0x22683, offset: 0x22683, size: 0x8, addend: 0x0, symName: __ZNKSt3__116reverse_iteratorINS_11__wrap_iterIPK2MAEEEdeB8ue170006Ev, symObjAddr: 0x2FA0, symBinAddr: 0x1000041E0, symSize: 0x30 }
  - { offsetInCU: 0x226B7, offset: 0x226B7, size: 0x8, addend: 0x0, symName: __ZNSt3__116reverse_iteratorINS_11__wrap_iterIPK2MAEEEppB8ue170006Ei, symObjAddr: 0x2FD0, symBinAddr: 0x100004210, symSize: 0x40 }
  - { offsetInCU: 0x226F5, offset: 0x226F5, size: 0x8, addend: 0x0, symName: __ZNSt3__15stackI3PHDNS_5dequeIS1_NS_9allocatorIS1_EEEEE4pushB8ue170006ERKS1_, symObjAddr: 0x3040, symBinAddr: 0x100004280, symSize: 0x30 }
  - { offsetInCU: 0x2272A, offset: 0x2272A, size: 0x8, addend: 0x0, symName: __ZNKSt3__111__wrap_iterIP3PHDEdeB8ue170006Ev, symObjAddr: 0x3070, symBinAddr: 0x1000042B0, symSize: 0x20 }
  - { offsetInCU: 0x22750, offset: 0x22750, size: 0x8, addend: 0x0, symName: __ZNSt3__111__wrap_iterIP3PHDEppB8ue170006Ei, symObjAddr: 0x3090, symBinAddr: 0x1000042D0, symSize: 0x30 }
  - { offsetInCU: 0x2278E, offset: 0x2278E, size: 0x8, addend: 0x0, symName: __ZNKSt3__16vectorI2BANS_9allocatorIS1_EEE4sizeB8ue170006Ev, symObjAddr: 0x30C0, symBinAddr: 0x100004300, symSize: 0x30 }
  - { offsetInCU: 0x227B4, offset: 0x227B4, size: 0x8, addend: 0x0, symName: __ZNSt3__15queueI2BANS_5dequeIS1_NS_9allocatorIS1_EEEEE5frontB8ue170006Ev, symObjAddr: 0x30F0, symBinAddr: 0x100004330, symSize: 0x20 }
  - { offsetInCU: 0x227DA, offset: 0x227DA, size: 0x8, addend: 0x0, symName: __ZNSt3__15queueI2BANS_5dequeIS1_NS_9allocatorIS1_EEEEE3popB8ue170006Ev, symObjAddr: 0x3110, symBinAddr: 0x100004350, symSize: 0x20 }
  - { offsetInCU: 0x22800, offset: 0x22800, size: 0x8, addend: 0x0, symName: __ZNKSt3__16vectorI2MANS_9allocatorIS1_EEE4sizeB8ue170006Ev, symObjAddr: 0x3130, symBinAddr: 0x100004370, symSize: 0x30 }
  - { offsetInCU: 0x22826, offset: 0x22826, size: 0x8, addend: 0x0, symName: __ZNSt3__15queueI2MANS_5dequeIS1_NS_9allocatorIS1_EEEEE5frontB8ue170006Ev, symObjAddr: 0x3160, symBinAddr: 0x1000043A0, symSize: 0x20 }
  - { offsetInCU: 0x2284C, offset: 0x2284C, size: 0x8, addend: 0x0, symName: __ZN2MAC1ERKS_, symObjAddr: 0x3180, symBinAddr: 0x1000043C0, symSize: 0x30 }
  - { offsetInCU: 0x22881, offset: 0x22881, size: 0x8, addend: 0x0, symName: __ZNSt3__15queueI2MANS_5dequeIS1_NS_9allocatorIS1_EEEEE3popB8ue170006Ev, symObjAddr: 0x31B0, symBinAddr: 0x1000043F0, symSize: 0x20 }
  - { offsetInCU: 0x228A7, offset: 0x228A7, size: 0x8, addend: 0x0, symName: __ZN2MAD1Ev, symObjAddr: 0x31D0, symBinAddr: 0x100004410, symSize: 0x20 }
  - { offsetInCU: 0x228D3, offset: 0x228D3, size: 0x8, addend: 0x0, symName: __ZNKSt3__16vectorI3PHDNS_9allocatorIS1_EEE4sizeB8ue170006Ev, symObjAddr: 0x31F0, symBinAddr: 0x100004430, symSize: 0x30 }
  - { offsetInCU: 0x228F9, offset: 0x228F9, size: 0x8, addend: 0x0, symName: __ZNSt3__15stackI3PHDNS_5dequeIS1_NS_9allocatorIS1_EEEEE3topB8ue170006Ev, symObjAddr: 0x3220, symBinAddr: 0x100004460, symSize: 0x20 }
  - { offsetInCU: 0x2291F, offset: 0x2291F, size: 0x8, addend: 0x0, symName: __ZN3PHDC1ERKS_, symObjAddr: 0x3240, symBinAddr: 0x100004480, symSize: 0x30 }
  - { offsetInCU: 0x22954, offset: 0x22954, size: 0x8, addend: 0x0, symName: __ZNSt3__15stackI3PHDNS_5dequeIS1_NS_9allocatorIS1_EEEEE3popB8ue170006Ev, symObjAddr: 0x3270, symBinAddr: 0x1000044B0, symSize: 0x20 }
  - { offsetInCU: 0x2297A, offset: 0x2297A, size: 0x8, addend: 0x0, symName: __ZN3PHDD1Ev, symObjAddr: 0x3290, symBinAddr: 0x1000044D0, symSize: 0x20 }
  - { offsetInCU: 0x229A6, offset: 0x229A6, size: 0x8, addend: 0x0, symName: __ZNSt3__15stackI3PHDNS_5dequeIS1_NS_9allocatorIS1_EEEEED1Ev, symObjAddr: 0x32B0, symBinAddr: 0x1000044F0, symSize: 0x20 }
  - { offsetInCU: 0x229D2, offset: 0x229D2, size: 0x8, addend: 0x0, symName: __ZNSt3__15queueI2MANS_5dequeIS1_NS_9allocatorIS1_EEEEED1Ev, symObjAddr: 0x32D0, symBinAddr: 0x100004510, symSize: 0x20 }
  - { offsetInCU: 0x229FF, offset: 0x229FF, size: 0x8, addend: 0x0, symName: __ZNSt3__15queueI2BANS_5dequeIS1_NS_9allocatorIS1_EEEEED1Ev, symObjAddr: 0x32F0, symBinAddr: 0x100004530, symSize: 0x20 }
  - { offsetInCU: 0x22A2C, offset: 0x22A2C, size: 0x8, addend: 0x0, symName: __ZNSt3__16vectorI3PHDNS_9allocatorIS1_EEED1B8ue170006Ev, symObjAddr: 0x3310, symBinAddr: 0x100004550, symSize: 0x20 }
  - { offsetInCU: 0x22A56, offset: 0x22A56, size: 0x8, addend: 0x0, symName: __ZNSt3__16vectorI2MANS_9allocatorIS1_EEED1B8ue170006Ev, symObjAddr: 0x3330, symBinAddr: 0x100004570, symSize: 0x20 }
  - { offsetInCU: 0x22A80, offset: 0x22A80, size: 0x8, addend: 0x0, symName: __ZNSt3__16vectorI2BANS_9allocatorIS1_EEED1B8ue170006Ev, symObjAddr: 0x3350, symBinAddr: 0x100004590, symSize: 0x20 }
  - { offsetInCU: 0x22AAA, offset: 0x22AAA, size: 0x8, addend: 0x0, symName: __ZNSt3__14listIP7StudentNS_9allocatorIS2_EEED1Ev, symObjAddr: 0x3370, symBinAddr: 0x1000045B0, symSize: 0x20 }
  - { offsetInCU: 0x22AD7, offset: 0x22AD7, size: 0x8, addend: 0x0, symName: __ZN2MAC1Ev, symObjAddr: 0x3390, symBinAddr: 0x1000045D0, symSize: 0x20 }
  - { offsetInCU: 0x22B01, offset: 0x22B01, size: 0x8, addend: 0x0, symName: __ZN3PHDC1Ev, symObjAddr: 0x33B0, symBinAddr: 0x1000045F0, symSize: 0x20 }
  - { offsetInCU: 0x22B2B, offset: 0x22B2B, size: 0x8, addend: 0x0, symName: __ZN2MAD0Ev, symObjAddr: 0x33D0, symBinAddr: 0x100004610, symSize: 0x30 }
  - { offsetInCU: 0x22B57, offset: 0x22B57, size: 0x8, addend: 0x0, symName: __ZNK2MA8studTypeEv, symObjAddr: 0x3400, symBinAddr: 0x100004640, symSize: 0x30 }
  - { offsetInCU: 0x22B7D, offset: 0x22B7D, size: 0x8, addend: 0x0, symName: __ZNK2MA8getHoursEv, symObjAddr: 0x3430, symBinAddr: 0x100004670, symSize: 0x10 }
  - { offsetInCU: 0x22BA3, offset: 0x22BA3, size: 0x8, addend: 0x0, symName: __ZNK2MAltERK7Student, symObjAddr: 0x3440, symBinAddr: 0x100004680, symSize: 0x30 }
  - { offsetInCU: 0x22BD7, offset: 0x22BD7, size: 0x8, addend: 0x0, symName: __ZN3PHDD0Ev, symObjAddr: 0x3470, symBinAddr: 0x1000046B0, symSize: 0x30 }
  - { offsetInCU: 0x22C03, offset: 0x22C03, size: 0x8, addend: 0x0, symName: __ZNK3PHD8studTypeEv, symObjAddr: 0x34A0, symBinAddr: 0x1000046E0, symSize: 0x30 }
  - { offsetInCU: 0x22C29, offset: 0x22C29, size: 0x8, addend: 0x0, symName: __ZNK3PHD13averageGradesEv, symObjAddr: 0x34D0, symBinAddr: 0x100004710, symSize: 0x10 }
  - { offsetInCU: 0x22C4F, offset: 0x22C4F, size: 0x8, addend: 0x0, symName: __ZNK3PHD8getHoursEv, symObjAddr: 0x34E0, symBinAddr: 0x100004720, symSize: 0x20 }
  - { offsetInCU: 0x22C75, offset: 0x22C75, size: 0x8, addend: 0x0, symName: __ZNK2BA8studTypeEv, symObjAddr: 0x3500, symBinAddr: 0x100004740, symSize: 0x30 }
  - { offsetInCU: 0x22C9B, offset: 0x22C9B, size: 0x8, addend: 0x0, symName: __ZNK2BA8getHoursEv, symObjAddr: 0x3530, symBinAddr: 0x100004770, symSize: 0x10 }
  - { offsetInCU: 0x22CC1, offset: 0x22CC1, size: 0x8, addend: 0x0, symName: __ZN7StudentD1Ev, symObjAddr: 0x3540, symBinAddr: 0x100004780, symSize: 0x10 }
  - { offsetInCU: 0x22CEB, offset: 0x22CEB, size: 0x8, addend: 0x0, symName: __ZN7StudentD0Ev, symObjAddr: 0x3550, symBinAddr: 0x100004790, symSize: 0x10 }
  - { offsetInCU: 0x22D1A, offset: 0x22D1A, size: 0x8, addend: 0x0, symName: __ZNSt3__112basic_stringIcNS_11char_traitsIcEENS_9allocatorIcEEEC1B8ue170006ILi0EEEPKc, symObjAddr: 0x3560, symBinAddr: 0x1000047A0, symSize: 0x30 }
  - { offsetInCU: 0x22D59, offset: 0x22D59, size: 0x8, addend: 0x0, symName: __ZNSt3__112basic_stringIcNS_11char_traitsIcEENS_9allocatorIcEEEC2B8ue170006ILi0EEEPKc, symObjAddr: 0x3590, symBinAddr: 0x1000047D0, symSize: 0x50 }
  - { offsetInCU: 0x22D9D, offset: 0x22D9D, size: 0x8, addend: 0x0, symName: __ZNSt3__117__compressed_pairINS_12basic_stringIcNS_11char_traitsIcEENS_9allocatorIcEEE5__repES5_EC1B8ue170006INS_18__default_init_tagESA_EEOT_OT0_, symObjAddr: 0x35E0, symBinAddr: 0x100004820, symSize: 0x30 }
  - { offsetInCU: 0x22DF5, offset: 0x22DF5, size: 0x8, addend: 0x0, symName: __ZNSt3__111char_traitsIcE6lengthB8ue170006EPKc, symObjAddr: 0x3610, symBinAddr: 0x100004850, symSize: 0x30 }
  - { offsetInCU: 0x22E18, offset: 0x22E18, size: 0x8, addend: 0x0, symName: __ZNSt3__117__compressed_pairINS_12basic_stringIcNS_11char_traitsIcEENS_9allocatorIcEEE5__repES5_EC2B8ue170006INS_18__default_init_tagESA_EEOT_OT0_, symObjAddr: 0x3640, symBinAddr: 0x100004880, symSize: 0x30 }
  - { offsetInCU: 0x22E70, offset: 0x22E70, size: 0x8, addend: 0x0, symName: __ZNSt3__122__compressed_pair_elemINS_12basic_stringIcNS_11char_traitsIcEENS_9allocatorIcEEE5__repELi0ELb0EEC2B8ue170006ENS_18__default_init_tagE, symObjAddr: 0x3670, symBinAddr: 0x1000048B0, symSize: 0x10 }
  - { offsetInCU: 0x22EA4, offset: 0x22EA4, size: 0x8, addend: 0x0, symName: __ZNSt3__122__compressed_pair_elemINS_9allocatorIcEELi1ELb1EEC2B8ue170006ENS_18__default_init_tagE, symObjAddr: 0x3680, symBinAddr: 0x1000048C0, symSize: 0x20 }
  - { offsetInCU: 0x22ED8, offset: 0x22ED8, size: 0x8, addend: 0x0, symName: __ZNSt3__19allocatorIcEC2B8ue170006Ev, symObjAddr: 0x36A0, symBinAddr: 0x1000048E0, symSize: 0x20 }
  - { offsetInCU: 0x22F02, offset: 0x22F02, size: 0x8, addend: 0x0, symName: __ZNSt3__116__non_trivial_ifILb1ENS_9allocatorIcEEEC2B8ue170006Ev, symObjAddr: 0x36C0, symBinAddr: 0x100004900, symSize: 0x10 }
  - { offsetInCU: 0x22F2C, offset: 0x22F2C, size: 0x8, addend: 0x0, symName: __ZNKSt3__111__wrap_iterIP3PHDE4baseB8ue170006Ev, symObjAddr: 0x3740, symBinAddr: 0x100004980, symSize: 0x20 }
  - { offsetInCU: 0x22F52, offset: 0x22F52, size: 0x8, addend: 0x0, symName: __ZNSt3__111__wrap_iterIP3PHDEppB8ue170006Ev, symObjAddr: 0x3760, symBinAddr: 0x1000049A0, symSize: 0x20 }
  - { offsetInCU: 0x22F78, offset: 0x22F78, size: 0x8, addend: 0x0, symName: __ZN2MAC2ERKS_, symObjAddr: 0x3780, symBinAddr: 0x1000049C0, symSize: 0x50 }
  - { offsetInCU: 0x22FAD, offset: 0x22FAD, size: 0x8, addend: 0x0, symName: __ZN2MAD2Ev, symObjAddr: 0x37D0, symBinAddr: 0x100004A10, symSize: 0x20 }
  - { offsetInCU: 0x22FD9, offset: 0x22FD9, size: 0x8, addend: 0x0, symName: __ZN3PHDC2ERKS_, symObjAddr: 0x37F0, symBinAddr: 0x100004A30, symSize: 0x50 }
  - { offsetInCU: 0x2300E, offset: 0x2300E, size: 0x8, addend: 0x0, symName: __ZN3PHDD2Ev, symObjAddr: 0x3840, symBinAddr: 0x100004A80, symSize: 0x20 }
  - { offsetInCU: 0x2303A, offset: 0x2303A, size: 0x8, addend: 0x0, symName: __ZNSt3__15stackI3PHDNS_5dequeIS1_NS_9allocatorIS1_EEEEED2Ev, symObjAddr: 0x3860, symBinAddr: 0x100004AA0, symSize: 0x20 }
  - { offsetInCU: 0x23066, offset: 0x23066, size: 0x8, addend: 0x0, symName: __ZNSt3__15dequeI3PHDNS_9allocatorIS1_EEED1B8ue170006Ev, symObjAddr: 0x3880, symBinAddr: 0x100004AC0, symSize: 0x20 }
  - { offsetInCU: 0x23090, offset: 0x23090, size: 0x8, addend: 0x0, symName: __ZNSt3__15dequeI3PHDNS_9allocatorIS1_EEED2B8ue170006Ev, symObjAddr: 0x38A0, symBinAddr: 0x100004AE0, symSize: 0x90 }
  - { offsetInCU: 0x230E6, offset: 0x230E6, size: 0x8, addend: 0x0, symName: __ZNSt3__15dequeI3PHDNS_9allocatorIS1_EEE5clearEv, symObjAddr: 0x3930, symBinAddr: 0x100004B70, symSize: 0x1A0 }
  - { offsetInCU: 0x23141, offset: 0x23141, size: 0x8, addend: 0x0, symName: __ZNKSt3__15dequeI3PHDNS_9allocatorIS1_EEE17__annotate_deleteB8ue170006Ev, symObjAddr: 0x3AD0, symBinAddr: 0x100004D10, symSize: 0xE0 }
  - { offsetInCU: 0x23184, offset: 0x23184, size: 0x8, addend: 0x0, symName: __ZNSt3__114__split_bufferIP3PHDNS_9allocatorIS2_EEE5beginB8ue170006Ev, symObjAddr: 0x3BB0, symBinAddr: 0x100004DF0, symSize: 0x20 }
  - { offsetInCU: 0x231AA, offset: 0x231AA, size: 0x8, addend: 0x0, symName: __ZNSt3__114__split_bufferIP3PHDNS_9allocatorIS2_EEE3endB8ue170006Ev, symObjAddr: 0x3BD0, symBinAddr: 0x100004E10, symSize: 0x20 }
  - { offsetInCU: 0x231D0, offset: 0x231D0, size: 0x8, addend: 0x0, symName: __ZNSt3__116allocator_traitsINS_9allocatorI3PHDEEE10deallocateB8ue170006ERS3_PS2_m, symObjAddr: 0x3BF0, symBinAddr: 0x100004E30, symSize: 0x30 }
  - { offsetInCU: 0x23212, offset: 0x23212, size: 0x8, addend: 0x0, symName: __ZNSt3__15dequeI3PHDNS_9allocatorIS1_EEE7__allocB8ue170006Ev, symObjAddr: 0x3C20, symBinAddr: 0x100004E60, symSize: 0x20 }
  - { offsetInCU: 0x23238, offset: 0x23238, size: 0x8, addend: 0x0, symName: __ZNSt3__114__split_bufferIP3PHDNS_9allocatorIS2_EEED1Ev, symObjAddr: 0x3C40, symBinAddr: 0x100004E80, symSize: 0x20 }
  - { offsetInCU: 0x23264, offset: 0x23264, size: 0x8, addend: 0x0, symName: __ZNSt3__15dequeI3PHDNS_9allocatorIS1_EEE5beginB8ue170006Ev, symObjAddr: 0x3C60, symBinAddr: 0x100004EA0, symSize: 0xD0 }
  - { offsetInCU: 0x23299, offset: 0x23299, size: 0x8, addend: 0x0, symName: __ZNSt3__15dequeI3PHDNS_9allocatorIS1_EEE3endB8ue170006Ev, symObjAddr: 0x3D30, symBinAddr: 0x100004F70, symSize: 0xC0 }
  - { offsetInCU: 0x232DD, offset: 0x232DD, size: 0x8, addend: 0x0, symName: __ZNSt3__116allocator_traitsINS_9allocatorI3PHDEEE7destroyB8ue170006IS2_vEEvRS3_PT_, symObjAddr: 0x3E20, symBinAddr: 0x100005060, symSize: 0x30 }
  - { offsetInCU: 0x2331A, offset: 0x2331A, size: 0x8, addend: 0x0, symName: __ZNKSt3__116__deque_iteratorI3PHDPS1_RS1_PS2_lLl56EEdeB8ue170006Ev, symObjAddr: 0x3E50, symBinAddr: 0x100005090, symSize: 0x20 }
  - { offsetInCU: 0x23340, offset: 0x23340, size: 0x8, addend: 0x0, symName: __ZNSt3__116__deque_iteratorI3PHDPS1_RS1_PS2_lLl56EEppB8ue170006Ev, symObjAddr: 0x3E70, symBinAddr: 0x1000050B0, symSize: 0x60 }
  - { offsetInCU: 0x23366, offset: 0x23366, size: 0x8, addend: 0x0, symName: __ZNSt3__15dequeI3PHDNS_9allocatorIS1_EEE6__sizeB8ue170006Ev, symObjAddr: 0x3ED0, symBinAddr: 0x100005110, symSize: 0x20 }
  - { offsetInCU: 0x2338C, offset: 0x2338C, size: 0x8, addend: 0x0, symName: __ZNKSt3__114__split_bufferIP3PHDNS_9allocatorIS2_EEE4sizeB8ue170006Ev, symObjAddr: 0x3EF0, symBinAddr: 0x100005130, symSize: 0x20 }
  - { offsetInCU: 0x233B2, offset: 0x233B2, size: 0x8, addend: 0x0, symName: __ZNSt3__114__split_bufferIP3PHDNS_9allocatorIS2_EEE5frontB8ue170006Ev, symObjAddr: 0x3F10, symBinAddr: 0x100005150, symSize: 0x20 }
  - { offsetInCU: 0x233D8, offset: 0x233D8, size: 0x8, addend: 0x0, symName: __ZNSt3__114__split_bufferIP3PHDNS_9allocatorIS2_EEE9pop_frontB8ue170006Ev, symObjAddr: 0x3F30, symBinAddr: 0x100005170, symSize: 0x30 }
  - { offsetInCU: 0x233FE, offset: 0x233FE, size: 0x8, addend: 0x0, symName: __ZNKSt3__15dequeI3PHDNS_9allocatorIS1_EEE14__annotate_newB8ue170006Em, symObjAddr: 0x3F60, symBinAddr: 0x1000051A0, symSize: 0xA0 }
  - { offsetInCU: 0x23433, offset: 0x23433, size: 0x8, addend: 0x0, symName: __ZNKSt3__114__split_bufferIP3PHDNS_9allocatorIS2_EEE5emptyB8ue170006Ev, symObjAddr: 0x4000, symBinAddr: 0x100005240, symSize: 0x20 }
  - { offsetInCU: 0x23459, offset: 0x23459, size: 0x8, addend: 0x0, symName: __ZNSt3__116__deque_iteratorI3PHDPS1_RS1_PS2_lLl56EEC1B8ue170006ES4_S2_, symObjAddr: 0x4020, symBinAddr: 0x100005260, symSize: 0x30 }
  - { offsetInCU: 0x234A1, offset: 0x234A1, size: 0x8, addend: 0x0, symName: __ZNSt3__116__deque_iteratorI3PHDPS1_RS1_PS2_lLl56EEC2B8ue170006ES4_S2_, symObjAddr: 0x4050, symBinAddr: 0x100005290, symSize: 0x30 }
  - { offsetInCU: 0x234E9, offset: 0x234E9, size: 0x8, addend: 0x0, symName: __ZNKSt3__15dequeI3PHDNS_9allocatorIS1_EEE4sizeB8ue170006Ev, symObjAddr: 0x4080, symBinAddr: 0x1000052C0, symSize: 0x20 }
  - { offsetInCU: 0x2350F, offset: 0x2350F, size: 0x8, addend: 0x0, symName: __ZNKSt3__15dequeI3PHDNS_9allocatorIS1_EEE6__sizeB8ue170006Ev, symObjAddr: 0x40A0, symBinAddr: 0x1000052E0, symSize: 0x20 }
  - { offsetInCU: 0x23535, offset: 0x23535, size: 0x8, addend: 0x0, symName: __ZNKSt3__117__compressed_pairImNS_9allocatorI3PHDEEE5firstB8ue170006Ev, symObjAddr: 0x40C0, symBinAddr: 0x100005300, symSize: 0x20 }
  - { offsetInCU: 0x2355B, offset: 0x2355B, size: 0x8, addend: 0x0, symName: __ZNKSt3__122__compressed_pair_elemImLi0ELb0EE5__getB8ue170006Ev, symObjAddr: 0x40E0, symBinAddr: 0x100005320, symSize: 0x10 }
  - { offsetInCU: 0x23581, offset: 0x23581, size: 0x8, addend: 0x0, symName: __ZNSt3__19allocatorI3PHDE7destroyB8ue170006EPS1_, symObjAddr: 0x4120, symBinAddr: 0x100005360, symSize: 0x20 }
  - { offsetInCU: 0x235B5, offset: 0x235B5, size: 0x8, addend: 0x0, symName: __ZNSt3__117__compressed_pairImNS_9allocatorI3PHDEEE5firstB8ue170006Ev, symObjAddr: 0x4140, symBinAddr: 0x100005380, symSize: 0x20 }
  - { offsetInCU: 0x235DB, offset: 0x235DB, size: 0x8, addend: 0x0, symName: __ZNSt3__122__compressed_pair_elemImLi0ELb0EE5__getB8ue170006Ev, symObjAddr: 0x4160, symBinAddr: 0x1000053A0, symSize: 0x10 }
  - { offsetInCU: 0x23601, offset: 0x23601, size: 0x8, addend: 0x0, symName: __ZNSt3__114__split_bufferIP3PHDNS_9allocatorIS2_EEE19__destruct_at_beginB8ue170006EPS2_, symObjAddr: 0x4170, symBinAddr: 0x1000053B0, symSize: 0x30 }
  - { offsetInCU: 0x23635, offset: 0x23635, size: 0x8, addend: 0x0, symName: __ZNSt3__114__split_bufferIP3PHDNS_9allocatorIS2_EEE19__destruct_at_beginEPS2_NS_17integral_constantIbLb1EEE, symObjAddr: 0x41A0, symBinAddr: 0x1000053E0, symSize: 0x20 }
  - { offsetInCU: 0x23675, offset: 0x23675, size: 0x8, addend: 0x0, symName: __ZNKSt3__15dequeI3PHDNS_9allocatorIS1_EEE18__annotate_from_toB8ue170006EmmNS4_22__asan_annotation_typeENS4_23__asan_annotation_placeE, symObjAddr: 0x41C0, symBinAddr: 0x100005400, symSize: 0x5F0 }
  - { offsetInCU: 0x2382F, offset: 0x2382F, size: 0x8, addend: 0x0, symName: __ZNKSt3__114__split_bufferIP3PHDNS_9allocatorIS2_EEE5beginB8ue170006Ev, symObjAddr: 0x47B0, symBinAddr: 0x1000059F0, symSize: 0x20 }
  - { offsetInCU: 0x23855, offset: 0x23855, size: 0x8, addend: 0x0, symName: __ZNKSt3__15dequeI3PHDNS_9allocatorIS1_EEE5emptyB8ue170006Ev, symObjAddr: 0x47D0, symBinAddr: 0x100005A10, symSize: 0x30 }
  - { offsetInCU: 0x2387B, offset: 0x2387B, size: 0x8, addend: 0x0, symName: __ZNKSt3__15dequeI3PHDNS_9allocatorIS1_EEE44__annotate_double_ended_contiguous_containerB8ue170006EPKvS6_S6_S6_S6_S6_, symObjAddr: 0x4810, symBinAddr: 0x100005A50, symSize: 0x30 }
  - { offsetInCU: 0x238E9, offset: 0x238E9, size: 0x8, addend: 0x0, symName: __ZNKSt3__15dequeI3PHDNS_9allocatorIS1_EEE22__annotate_whole_blockB8ue170006EmNS4_22__asan_annotation_typeE, symObjAddr: 0x4840, symBinAddr: 0x100005A80, symSize: 0xB0 }
  - { offsetInCU: 0x2395A, offset: 0x2395A, size: 0x8, addend: 0x0, symName: __ZNKSt3__15dequeI3PHDNS_9allocatorIS1_EEE23__annotate_poison_blockB8ue170006EPKvS6_, symObjAddr: 0x48F0, symBinAddr: 0x100005B30, symSize: 0x40 }
  - { offsetInCU: 0x2399E, offset: 0x2399E, size: 0x8, addend: 0x0, symName: __ZNSt3__19allocatorI3PHDE10deallocateB8ue170006EPS1_m, symObjAddr: 0x4930, symBinAddr: 0x100005B70, symSize: 0x50 }
  - { offsetInCU: 0x239E0, offset: 0x239E0, size: 0x8, addend: 0x0, symName: __ZNSt3__117__compressed_pairImNS_9allocatorI3PHDEEE6secondB8ue170006Ev, symObjAddr: 0x49F0, symBinAddr: 0x100005C30, symSize: 0x20 }
  - { offsetInCU: 0x23A06, offset: 0x23A06, size: 0x8, addend: 0x0, symName: __ZNSt3__122__compressed_pair_elemINS_9allocatorI3PHDEELi1ELb1EE5__getB8ue170006Ev, symObjAddr: 0x4A10, symBinAddr: 0x100005C50, symSize: 0x10 }
  - { offsetInCU: 0x23A2C, offset: 0x23A2C, size: 0x8, addend: 0x0, symName: __ZNSt3__114__split_bufferIP3PHDNS_9allocatorIS2_EEED2Ev, symObjAddr: 0x4A20, symBinAddr: 0x100005C60, symSize: 0x70 }
  - { offsetInCU: 0x23A58, offset: 0x23A58, size: 0x8, addend: 0x0, symName: __ZNSt3__114__split_bufferIP3PHDNS_9allocatorIS2_EEE5clearB8ue170006Ev, symObjAddr: 0x4A90, symBinAddr: 0x100005CD0, symSize: 0x20 }
  - { offsetInCU: 0x23A7E, offset: 0x23A7E, size: 0x8, addend: 0x0, symName: __ZNSt3__116allocator_traitsINS_9allocatorIP3PHDEEE10deallocateB8ue170006ERS4_PS3_m, symObjAddr: 0x4AB0, symBinAddr: 0x100005CF0, symSize: 0x30 }
  - { offsetInCU: 0x23AC0, offset: 0x23AC0, size: 0x8, addend: 0x0, symName: __ZNSt3__114__split_bufferIP3PHDNS_9allocatorIS2_EEE7__allocB8ue170006Ev, symObjAddr: 0x4AE0, symBinAddr: 0x100005D20, symSize: 0x20 }
  - { offsetInCU: 0x23AE6, offset: 0x23AE6, size: 0x8, addend: 0x0, symName: __ZNKSt3__114__split_bufferIP3PHDNS_9allocatorIS2_EEE8capacityB8ue170006Ev, symObjAddr: 0x4B00, symBinAddr: 0x100005D40, symSize: 0x30 }
  - { offsetInCU: 0x23B0C, offset: 0x23B0C, size: 0x8, addend: 0x0, symName: __ZNSt3__114__split_bufferIP3PHDNS_9allocatorIS2_EEE17__destruct_at_endB8ue170006EPS2_, symObjAddr: 0x4B30, symBinAddr: 0x100005D70, symSize: 0x30 }
  - { offsetInCU: 0x23B40, offset: 0x23B40, size: 0x8, addend: 0x0, symName: __ZNSt3__114__split_bufferIP3PHDNS_9allocatorIS2_EEE17__destruct_at_endB8ue170006EPS2_NS_17integral_constantIbLb0EEE, symObjAddr: 0x4B60, symBinAddr: 0x100005DA0, symSize: 0x80 }
  - { offsetInCU: 0x23B80, offset: 0x23B80, size: 0x8, addend: 0x0, symName: __ZNSt3__116allocator_traitsINS_9allocatorIP3PHDEEE7destroyB8ue170006IS3_vEEvRS4_PT_, symObjAddr: 0x4BE0, symBinAddr: 0x100005E20, symSize: 0x30 }
  - { offsetInCU: 0x23BBD, offset: 0x23BBD, size: 0x8, addend: 0x0, symName: __ZNSt3__19allocatorIP3PHDE7destroyB8ue170006EPS2_, symObjAddr: 0x4C20, symBinAddr: 0x100005E60, symSize: 0x10 }
  - { offsetInCU: 0x23BF1, offset: 0x23BF1, size: 0x8, addend: 0x0, symName: __ZNSt3__19allocatorIP3PHDE10deallocateB8ue170006EPS2_m, symObjAddr: 0x4C30, symBinAddr: 0x100005E70, symSize: 0x40 }
  - { offsetInCU: 0x23C33, offset: 0x23C33, size: 0x8, addend: 0x0, symName: __ZNSt3__117__compressed_pairIPP3PHDNS_9allocatorIS2_EEE6secondB8ue170006Ev, symObjAddr: 0x4C70, symBinAddr: 0x100005EB0, symSize: 0x20 }
  - { offsetInCU: 0x23C59, offset: 0x23C59, size: 0x8, addend: 0x0, symName: __ZNSt3__122__compressed_pair_elemINS_9allocatorIP3PHDEELi1ELb1EE5__getB8ue170006Ev, symObjAddr: 0x4C90, symBinAddr: 0x100005ED0, symSize: 0x10 }
  - { offsetInCU: 0x23C7F, offset: 0x23C7F, size: 0x8, addend: 0x0, symName: __ZNKSt3__114__split_bufferIP3PHDNS_9allocatorIS2_EEE9__end_capB8ue170006Ev, symObjAddr: 0x4CA0, symBinAddr: 0x100005EE0, symSize: 0x20 }
  - { offsetInCU: 0x23CA5, offset: 0x23CA5, size: 0x8, addend: 0x0, symName: __ZNKSt3__117__compressed_pairIPP3PHDNS_9allocatorIS2_EEE5firstB8ue170006Ev, symObjAddr: 0x4CC0, symBinAddr: 0x100005F00, symSize: 0x20 }
  - { offsetInCU: 0x23CCB, offset: 0x23CCB, size: 0x8, addend: 0x0, symName: __ZNKSt3__122__compressed_pair_elemIPP3PHDLi0ELb0EE5__getB8ue170006Ev, symObjAddr: 0x4CE0, symBinAddr: 0x100005F20, symSize: 0x10 }
  - { offsetInCU: 0x23CF1, offset: 0x23CF1, size: 0x8, addend: 0x0, symName: __ZNSt3__15queueI2MANS_5dequeIS1_NS_9allocatorIS1_EEEEED2Ev, symObjAddr: 0x4CF0, symBinAddr: 0x100005F30, symSize: 0x20 }
  - { offsetInCU: 0x23D1E, offset: 0x23D1E, size: 0x8, addend: 0x0, symName: __ZNSt3__15dequeI2MANS_9allocatorIS1_EEED1B8ue170006Ev, symObjAddr: 0x4D10, symBinAddr: 0x100005F50, symSize: 0x20 }
  - { offsetInCU: 0x23D48, offset: 0x23D48, size: 0x8, addend: 0x0, symName: __ZNSt3__15dequeI2MANS_9allocatorIS1_EEED2B8ue170006Ev, symObjAddr: 0x4D30, symBinAddr: 0x100005F70, symSize: 0x90 }
  - { offsetInCU: 0x23D9E, offset: 0x23D9E, size: 0x8, addend: 0x0, symName: __ZNSt3__15dequeI2MANS_9allocatorIS1_EEE5clearEv, symObjAddr: 0x4DC0, symBinAddr: 0x100006000, symSize: 0x1A0 }
  - { offsetInCU: 0x23DF9, offset: 0x23DF9, size: 0x8, addend: 0x0, symName: __ZNKSt3__15dequeI2MANS_9allocatorIS1_EEE17__annotate_deleteB8ue170006Ev, symObjAddr: 0x4F60, symBinAddr: 0x1000061A0, symSize: 0xE0 }
  - { offsetInCU: 0x23E3C, offset: 0x23E3C, size: 0x8, addend: 0x0, symName: __ZNSt3__114__split_bufferIP2MANS_9allocatorIS2_EEE5beginB8ue170006Ev, symObjAddr: 0x5040, symBinAddr: 0x100006280, symSize: 0x20 }
  - { offsetInCU: 0x23E62, offset: 0x23E62, size: 0x8, addend: 0x0, symName: __ZNSt3__114__split_bufferIP2MANS_9allocatorIS2_EEE3endB8ue170006Ev, symObjAddr: 0x5060, symBinAddr: 0x1000062A0, symSize: 0x20 }
  - { offsetInCU: 0x23E88, offset: 0x23E88, size: 0x8, addend: 0x0, symName: __ZNSt3__116allocator_traitsINS_9allocatorI2MAEEE10deallocateB8ue170006ERS3_PS2_m, symObjAddr: 0x5080, symBinAddr: 0x1000062C0, symSize: 0x30 }
  - { offsetInCU: 0x23ECA, offset: 0x23ECA, size: 0x8, addend: 0x0, symName: __ZNSt3__15dequeI2MANS_9allocatorIS1_EEE7__allocB8ue170006Ev, symObjAddr: 0x50B0, symBinAddr: 0x1000062F0, symSize: 0x20 }
  - { offsetInCU: 0x23EF0, offset: 0x23EF0, size: 0x8, addend: 0x0, symName: __ZNSt3__114__split_bufferIP2MANS_9allocatorIS2_EEED1Ev, symObjAddr: 0x50D0, symBinAddr: 0x100006310, symSize: 0x20 }
  - { offsetInCU: 0x23F1C, offset: 0x23F1C, size: 0x8, addend: 0x0, symName: __ZNSt3__15dequeI2MANS_9allocatorIS1_EEE5beginB8ue170006Ev, symObjAddr: 0x50F0, symBinAddr: 0x100006330, symSize: 0xD0 }
  - { offsetInCU: 0x23F51, offset: 0x23F51, size: 0x8, addend: 0x0, symName: __ZNSt3__15dequeI2MANS_9allocatorIS1_EEE3endB8ue170006Ev, symObjAddr: 0x51C0, symBinAddr: 0x100006400, symSize: 0xC0 }
  - { offsetInCU: 0x23F95, offset: 0x23F95, size: 0x8, addend: 0x0, symName: __ZNSt3__116allocator_traitsINS_9allocatorI2MAEEE7destroyB8ue170006IS2_vEEvRS3_PT_, symObjAddr: 0x52B0, symBinAddr: 0x1000064F0, symSize: 0x30 }
  - { offsetInCU: 0x23FD2, offset: 0x23FD2, size: 0x8, addend: 0x0, symName: __ZNKSt3__116__deque_iteratorI2MAPS1_RS1_PS2_lLl46EEdeB8ue170006Ev, symObjAddr: 0x52E0, symBinAddr: 0x100006520, symSize: 0x20 }
  - { offsetInCU: 0x23FF8, offset: 0x23FF8, size: 0x8, addend: 0x0, symName: __ZNSt3__116__deque_iteratorI2MAPS1_RS1_PS2_lLl46EEppB8ue170006Ev, symObjAddr: 0x5300, symBinAddr: 0x100006540, symSize: 0x60 }
  - { offsetInCU: 0x2401E, offset: 0x2401E, size: 0x8, addend: 0x0, symName: __ZNSt3__15dequeI2MANS_9allocatorIS1_EEE6__sizeB8ue170006Ev, symObjAddr: 0x5360, symBinAddr: 0x1000065A0, symSize: 0x20 }
  - { offsetInCU: 0x24044, offset: 0x24044, size: 0x8, addend: 0x0, symName: __ZNKSt3__114__split_bufferIP2MANS_9allocatorIS2_EEE4sizeB8ue170006Ev, symObjAddr: 0x5380, symBinAddr: 0x1000065C0, symSize: 0x20 }
  - { offsetInCU: 0x2406A, offset: 0x2406A, size: 0x8, addend: 0x0, symName: __ZNSt3__114__split_bufferIP2MANS_9allocatorIS2_EEE5frontB8ue170006Ev, symObjAddr: 0x53A0, symBinAddr: 0x1000065E0, symSize: 0x20 }
  - { offsetInCU: 0x24090, offset: 0x24090, size: 0x8, addend: 0x0, symName: __ZNSt3__114__split_bufferIP2MANS_9allocatorIS2_EEE9pop_frontB8ue170006Ev, symObjAddr: 0x53C0, symBinAddr: 0x100006600, symSize: 0x30 }
  - { offsetInCU: 0x240B6, offset: 0x240B6, size: 0x8, addend: 0x0, symName: __ZNKSt3__15dequeI2MANS_9allocatorIS1_EEE14__annotate_newB8ue170006Em, symObjAddr: 0x53F0, symBinAddr: 0x100006630, symSize: 0xA0 }
  - { offsetInCU: 0x240EB, offset: 0x240EB, size: 0x8, addend: 0x0, symName: __ZNKSt3__114__split_bufferIP2MANS_9allocatorIS2_EEE5emptyB8ue170006Ev, symObjAddr: 0x5490, symBinAddr: 0x1000066D0, symSize: 0x20 }
  - { offsetInCU: 0x24111, offset: 0x24111, size: 0x8, addend: 0x0, symName: __ZNSt3__116__deque_iteratorI2MAPS1_RS1_PS2_lLl46EEC1B8ue170006ES4_S2_, symObjAddr: 0x54B0, symBinAddr: 0x1000066F0, symSize: 0x30 }
  - { offsetInCU: 0x24159, offset: 0x24159, size: 0x8, addend: 0x0, symName: __ZNSt3__116__deque_iteratorI2MAPS1_RS1_PS2_lLl46EEC2B8ue170006ES4_S2_, symObjAddr: 0x54E0, symBinAddr: 0x100006720, symSize: 0x30 }
  - { offsetInCU: 0x241A1, offset: 0x241A1, size: 0x8, addend: 0x0, symName: __ZNKSt3__15dequeI2MANS_9allocatorIS1_EEE4sizeB8ue170006Ev, symObjAddr: 0x5510, symBinAddr: 0x100006750, symSize: 0x20 }
  - { offsetInCU: 0x241C7, offset: 0x241C7, size: 0x8, addend: 0x0, symName: __ZNKSt3__15dequeI2MANS_9allocatorIS1_EEE6__sizeB8ue170006Ev, symObjAddr: 0x5530, symBinAddr: 0x100006770, symSize: 0x20 }
  - { offsetInCU: 0x241ED, offset: 0x241ED, size: 0x8, addend: 0x0, symName: __ZNKSt3__117__compressed_pairImNS_9allocatorI2MAEEE5firstB8ue170006Ev, symObjAddr: 0x5550, symBinAddr: 0x100006790, symSize: 0x20 }
  - { offsetInCU: 0x24213, offset: 0x24213, size: 0x8, addend: 0x0, symName: __ZNSt3__19allocatorI2MAE7destroyB8ue170006EPS1_, symObjAddr: 0x55A0, symBinAddr: 0x1000067E0, symSize: 0x20 }
  - { offsetInCU: 0x24247, offset: 0x24247, size: 0x8, addend: 0x0, symName: __ZNSt3__117__compressed_pairImNS_9allocatorI2MAEEE5firstB8ue170006Ev, symObjAddr: 0x55C0, symBinAddr: 0x100006800, symSize: 0x20 }
  - { offsetInCU: 0x2426D, offset: 0x2426D, size: 0x8, addend: 0x0, symName: __ZNSt3__114__split_bufferIP2MANS_9allocatorIS2_EEE19__destruct_at_beginB8ue170006EPS2_, symObjAddr: 0x55E0, symBinAddr: 0x100006820, symSize: 0x30 }
  - { offsetInCU: 0x242A1, offset: 0x242A1, size: 0x8, addend: 0x0, symName: __ZNSt3__114__split_bufferIP2MANS_9allocatorIS2_EEE19__destruct_at_beginEPS2_NS_17integral_constantIbLb1EEE, symObjAddr: 0x5610, symBinAddr: 0x100006850, symSize: 0x20 }
  - { offsetInCU: 0x242E1, offset: 0x242E1, size: 0x8, addend: 0x0, symName: __ZNKSt3__15dequeI2MANS_9allocatorIS1_EEE18__annotate_from_toB8ue170006EmmNS4_22__asan_annotation_typeENS4_23__asan_annotation_placeE, symObjAddr: 0x5630, symBinAddr: 0x100006870, symSize: 0x5F0 }
  - { offsetInCU: 0x2449B, offset: 0x2449B, size: 0x8, addend: 0x0, symName: __ZNKSt3__114__split_bufferIP2MANS_9allocatorIS2_EEE5beginB8ue170006Ev, symObjAddr: 0x5C20, symBinAddr: 0x100006E60, symSize: 0x20 }
  - { offsetInCU: 0x244C1, offset: 0x244C1, size: 0x8, addend: 0x0, symName: __ZNKSt3__15dequeI2MANS_9allocatorIS1_EEE5emptyB8ue170006Ev, symObjAddr: 0x5C40, symBinAddr: 0x100006E80, symSize: 0x30 }
  - { offsetInCU: 0x244E7, offset: 0x244E7, size: 0x8, addend: 0x0, symName: __ZNKSt3__15dequeI2MANS_9allocatorIS1_EEE44__annotate_double_ended_contiguous_containerB8ue170006EPKvS6_S6_S6_S6_S6_, symObjAddr: 0x5C80, symBinAddr: 0x100006EC0, symSize: 0x30 }
  - { offsetInCU: 0x24555, offset: 0x24555, size: 0x8, addend: 0x0, symName: __ZNKSt3__15dequeI2MANS_9allocatorIS1_EEE22__annotate_whole_blockB8ue170006EmNS4_22__asan_annotation_typeE, symObjAddr: 0x5CB0, symBinAddr: 0x100006EF0, symSize: 0xB0 }
  - { offsetInCU: 0x245C6, offset: 0x245C6, size: 0x8, addend: 0x0, symName: __ZNKSt3__15dequeI2MANS_9allocatorIS1_EEE23__annotate_poison_blockB8ue170006EPKvS6_, symObjAddr: 0x5D60, symBinAddr: 0x100006FA0, symSize: 0x40 }
  - { offsetInCU: 0x2460A, offset: 0x2460A, size: 0x8, addend: 0x0, symName: __ZNSt3__19allocatorI2MAE10deallocateB8ue170006EPS1_m, symObjAddr: 0x5DA0, symBinAddr: 0x100006FE0, symSize: 0x40 }
  - { offsetInCU: 0x2464C, offset: 0x2464C, size: 0x8, addend: 0x0, symName: __ZNSt3__117__compressed_pairImNS_9allocatorI2MAEEE6secondB8ue170006Ev, symObjAddr: 0x5DE0, symBinAddr: 0x100007020, symSize: 0x20 }
  - { offsetInCU: 0x24672, offset: 0x24672, size: 0x8, addend: 0x0, symName: __ZNSt3__122__compressed_pair_elemINS_9allocatorI2MAEELi1ELb1EE5__getB8ue170006Ev, symObjAddr: 0x5E00, symBinAddr: 0x100007040, symSize: 0x10 }
  - { offsetInCU: 0x24698, offset: 0x24698, size: 0x8, addend: 0x0, symName: __ZNSt3__114__split_bufferIP2MANS_9allocatorIS2_EEED2Ev, symObjAddr: 0x5E10, symBinAddr: 0x100007050, symSize: 0x70 }
  - { offsetInCU: 0x246C4, offset: 0x246C4, size: 0x8, addend: 0x0, symName: __ZNSt3__114__split_bufferIP2MANS_9allocatorIS2_EEE5clearB8ue170006Ev, symObjAddr: 0x5E80, symBinAddr: 0x1000070C0, symSize: 0x20 }
  - { offsetInCU: 0x246EA, offset: 0x246EA, size: 0x8, addend: 0x0, symName: __ZNSt3__116allocator_traitsINS_9allocatorIP2MAEEE10deallocateB8ue170006ERS4_PS3_m, symObjAddr: 0x5EA0, symBinAddr: 0x1000070E0, symSize: 0x30 }
  - { offsetInCU: 0x2472C, offset: 0x2472C, size: 0x8, addend: 0x0, symName: __ZNSt3__114__split_bufferIP2MANS_9allocatorIS2_EEE7__allocB8ue170006Ev, symObjAddr: 0x5ED0, symBinAddr: 0x100007110, symSize: 0x20 }
  - { offsetInCU: 0x24752, offset: 0x24752, size: 0x8, addend: 0x0, symName: __ZNKSt3__114__split_bufferIP2MANS_9allocatorIS2_EEE8capacityB8ue170006Ev, symObjAddr: 0x5EF0, symBinAddr: 0x100007130, symSize: 0x30 }
  - { offsetInCU: 0x24778, offset: 0x24778, size: 0x8, addend: 0x0, symName: __ZNSt3__114__split_bufferIP2MANS_9allocatorIS2_EEE17__destruct_at_endB8ue170006EPS2_, symObjAddr: 0x5F20, symBinAddr: 0x100007160, symSize: 0x30 }
  - { offsetInCU: 0x247AC, offset: 0x247AC, size: 0x8, addend: 0x0, symName: __ZNSt3__114__split_bufferIP2MANS_9allocatorIS2_EEE17__destruct_at_endB8ue170006EPS2_NS_17integral_constantIbLb0EEE, symObjAddr: 0x5F50, symBinAddr: 0x100007190, symSize: 0x80 }
  - { offsetInCU: 0x247EC, offset: 0x247EC, size: 0x8, addend: 0x0, symName: __ZNSt3__116allocator_traitsINS_9allocatorIP2MAEEE7destroyB8ue170006IS3_vEEvRS4_PT_, symObjAddr: 0x5FD0, symBinAddr: 0x100007210, symSize: 0x30 }
  - { offsetInCU: 0x24829, offset: 0x24829, size: 0x8, addend: 0x0, symName: __ZNSt3__19allocatorIP2MAE7destroyB8ue170006EPS2_, symObjAddr: 0x6010, symBinAddr: 0x100007250, symSize: 0x10 }
  - { offsetInCU: 0x2485D, offset: 0x2485D, size: 0x8, addend: 0x0, symName: __ZNSt3__19allocatorIP2MAE10deallocateB8ue170006EPS2_m, symObjAddr: 0x6020, symBinAddr: 0x100007260, symSize: 0x40 }
  - { offsetInCU: 0x2489F, offset: 0x2489F, size: 0x8, addend: 0x0, symName: __ZNSt3__117__compressed_pairIPP2MANS_9allocatorIS2_EEE6secondB8ue170006Ev, symObjAddr: 0x6060, symBinAddr: 0x1000072A0, symSize: 0x20 }
  - { offsetInCU: 0x248C5, offset: 0x248C5, size: 0x8, addend: 0x0, symName: __ZNSt3__122__compressed_pair_elemINS_9allocatorIP2MAEELi1ELb1EE5__getB8ue170006Ev, symObjAddr: 0x6080, symBinAddr: 0x1000072C0, symSize: 0x10 }
  - { offsetInCU: 0x248EB, offset: 0x248EB, size: 0x8, addend: 0x0, symName: __ZNKSt3__114__split_bufferIP2MANS_9allocatorIS2_EEE9__end_capB8ue170006Ev, symObjAddr: 0x6090, symBinAddr: 0x1000072D0, symSize: 0x20 }
  - { offsetInCU: 0x24911, offset: 0x24911, size: 0x8, addend: 0x0, symName: __ZNKSt3__117__compressed_pairIPP2MANS_9allocatorIS2_EEE5firstB8ue170006Ev, symObjAddr: 0x60B0, symBinAddr: 0x1000072F0, symSize: 0x20 }
  - { offsetInCU: 0x24937, offset: 0x24937, size: 0x8, addend: 0x0, symName: __ZNKSt3__122__compressed_pair_elemIPP2MALi0ELb0EE5__getB8ue170006Ev, symObjAddr: 0x60D0, symBinAddr: 0x100007310, symSize: 0x10 }
  - { offsetInCU: 0x2495D, offset: 0x2495D, size: 0x8, addend: 0x0, symName: __ZNSt3__15queueI2BANS_5dequeIS1_NS_9allocatorIS1_EEEEED2Ev, symObjAddr: 0x60E0, symBinAddr: 0x100007320, symSize: 0x20 }
  - { offsetInCU: 0x2498A, offset: 0x2498A, size: 0x8, addend: 0x0, symName: __ZNSt3__15dequeI2BANS_9allocatorIS1_EEED1B8ue170006Ev, symObjAddr: 0x6100, symBinAddr: 0x100007340, symSize: 0x20 }
  - { offsetInCU: 0x249B4, offset: 0x249B4, size: 0x8, addend: 0x0, symName: __ZNSt3__15dequeI2BANS_9allocatorIS1_EEED2B8ue170006Ev, symObjAddr: 0x6120, symBinAddr: 0x100007360, symSize: 0x90 }
  - { offsetInCU: 0x24A0A, offset: 0x24A0A, size: 0x8, addend: 0x0, symName: __ZNSt3__15dequeI2BANS_9allocatorIS1_EEE5clearEv, symObjAddr: 0x61B0, symBinAddr: 0x1000073F0, symSize: 0x1A0 }
  - { offsetInCU: 0x24A65, offset: 0x24A65, size: 0x8, addend: 0x0, symName: __ZNKSt3__15dequeI2BANS_9allocatorIS1_EEE17__annotate_deleteB8ue170006Ev, symObjAddr: 0x6350, symBinAddr: 0x100007590, symSize: 0xE0 }
  - { offsetInCU: 0x24AA8, offset: 0x24AA8, size: 0x8, addend: 0x0, symName: __ZNSt3__114__split_bufferIP2BANS_9allocatorIS2_EEE5beginB8ue170006Ev, symObjAddr: 0x6430, symBinAddr: 0x100007670, symSize: 0x20 }
  - { offsetInCU: 0x24ACE, offset: 0x24ACE, size: 0x8, addend: 0x0, symName: __ZNSt3__114__split_bufferIP2BANS_9allocatorIS2_EEE3endB8ue170006Ev, symObjAddr: 0x6450, symBinAddr: 0x100007690, symSize: 0x20 }
  - { offsetInCU: 0x24AF4, offset: 0x24AF4, size: 0x8, addend: 0x0, symName: __ZNSt3__116allocator_traitsINS_9allocatorI2BAEEE10deallocateB8ue170006ERS3_PS2_m, symObjAddr: 0x6470, symBinAddr: 0x1000076B0, symSize: 0x30 }
  - { offsetInCU: 0x24B36, offset: 0x24B36, size: 0x8, addend: 0x0, symName: __ZNSt3__15dequeI2BANS_9allocatorIS1_EEE7__allocB8ue170006Ev, symObjAddr: 0x64A0, symBinAddr: 0x1000076E0, symSize: 0x20 }
  - { offsetInCU: 0x24B5C, offset: 0x24B5C, size: 0x8, addend: 0x0, symName: __ZNSt3__114__split_bufferIP2BANS_9allocatorIS2_EEED1Ev, symObjAddr: 0x64C0, symBinAddr: 0x100007700, symSize: 0x20 }
  - { offsetInCU: 0x24B88, offset: 0x24B88, size: 0x8, addend: 0x0, symName: __ZNSt3__15dequeI2BANS_9allocatorIS1_EEE5beginB8ue170006Ev, symObjAddr: 0x64E0, symBinAddr: 0x100007720, symSize: 0xD0 }
  - { offsetInCU: 0x24BBD, offset: 0x24BBD, size: 0x8, addend: 0x0, symName: __ZNSt3__15dequeI2BANS_9allocatorIS1_EEE3endB8ue170006Ev, symObjAddr: 0x65B0, symBinAddr: 0x1000077F0, symSize: 0xC0 }
  - { offsetInCU: 0x24C01, offset: 0x24C01, size: 0x8, addend: 0x0, symName: __ZNSt3__116allocator_traitsINS_9allocatorI2BAEEE7destroyB8ue170006IS2_vEEvRS3_PT_, symObjAddr: 0x66A0, symBinAddr: 0x1000078E0, symSize: 0x30 }
  - { offsetInCU: 0x24C3E, offset: 0x24C3E, size: 0x8, addend: 0x0, symName: __ZNKSt3__116__deque_iteratorI2BAPS1_RS1_PS2_lLl46EEdeB8ue170006Ev, symObjAddr: 0x66D0, symBinAddr: 0x100007910, symSize: 0x20 }
  - { offsetInCU: 0x24C64, offset: 0x24C64, size: 0x8, addend: 0x0, symName: __ZNSt3__116__deque_iteratorI2BAPS1_RS1_PS2_lLl46EEppB8ue170006Ev, symObjAddr: 0x66F0, symBinAddr: 0x100007930, symSize: 0x60 }
  - { offsetInCU: 0x24C8A, offset: 0x24C8A, size: 0x8, addend: 0x0, symName: __ZNSt3__15dequeI2BANS_9allocatorIS1_EEE6__sizeB8ue170006Ev, symObjAddr: 0x6750, symBinAddr: 0x100007990, symSize: 0x20 }
  - { offsetInCU: 0x24CB0, offset: 0x24CB0, size: 0x8, addend: 0x0, symName: __ZNKSt3__114__split_bufferIP2BANS_9allocatorIS2_EEE4sizeB8ue170006Ev, symObjAddr: 0x6770, symBinAddr: 0x1000079B0, symSize: 0x20 }
  - { offsetInCU: 0x24CD6, offset: 0x24CD6, size: 0x8, addend: 0x0, symName: __ZNSt3__114__split_bufferIP2BANS_9allocatorIS2_EEE5frontB8ue170006Ev, symObjAddr: 0x6790, symBinAddr: 0x1000079D0, symSize: 0x20 }
  - { offsetInCU: 0x24CFC, offset: 0x24CFC, size: 0x8, addend: 0x0, symName: __ZNSt3__114__split_bufferIP2BANS_9allocatorIS2_EEE9pop_frontB8ue170006Ev, symObjAddr: 0x67B0, symBinAddr: 0x1000079F0, symSize: 0x30 }
  - { offsetInCU: 0x24D22, offset: 0x24D22, size: 0x8, addend: 0x0, symName: __ZNKSt3__15dequeI2BANS_9allocatorIS1_EEE14__annotate_newB8ue170006Em, symObjAddr: 0x67E0, symBinAddr: 0x100007A20, symSize: 0xA0 }
  - { offsetInCU: 0x24D57, offset: 0x24D57, size: 0x8, addend: 0x0, symName: __ZNKSt3__114__split_bufferIP2BANS_9allocatorIS2_EEE5emptyB8ue170006Ev, symObjAddr: 0x6880, symBinAddr: 0x100007AC0, symSize: 0x20 }
  - { offsetInCU: 0x24D7D, offset: 0x24D7D, size: 0x8, addend: 0x0, symName: __ZNSt3__116__deque_iteratorI2BAPS1_RS1_PS2_lLl46EEC1B8ue170006ES4_S2_, symObjAddr: 0x68A0, symBinAddr: 0x100007AE0, symSize: 0x30 }
  - { offsetInCU: 0x24DC5, offset: 0x24DC5, size: 0x8, addend: 0x0, symName: __ZNSt3__116__deque_iteratorI2BAPS1_RS1_PS2_lLl46EEC2B8ue170006ES4_S2_, symObjAddr: 0x68D0, symBinAddr: 0x100007B10, symSize: 0x30 }
  - { offsetInCU: 0x24E0D, offset: 0x24E0D, size: 0x8, addend: 0x0, symName: __ZNKSt3__15dequeI2BANS_9allocatorIS1_EEE4sizeB8ue170006Ev, symObjAddr: 0x6900, symBinAddr: 0x100007B40, symSize: 0x20 }
  - { offsetInCU: 0x24E33, offset: 0x24E33, size: 0x8, addend: 0x0, symName: __ZNKSt3__15dequeI2BANS_9allocatorIS1_EEE6__sizeB8ue170006Ev, symObjAddr: 0x6920, symBinAddr: 0x100007B60, symSize: 0x20 }
  - { offsetInCU: 0x24E59, offset: 0x24E59, size: 0x8, addend: 0x0, symName: __ZNKSt3__117__compressed_pairImNS_9allocatorI2BAEEE5firstB8ue170006Ev, symObjAddr: 0x6940, symBinAddr: 0x100007B80, symSize: 0x20 }
  - { offsetInCU: 0x24E7F, offset: 0x24E7F, size: 0x8, addend: 0x0, symName: __ZNSt3__19allocatorI2BAE7destroyB8ue170006EPS1_, symObjAddr: 0x6990, symBinAddr: 0x100007BD0, symSize: 0x20 }
  - { offsetInCU: 0x24EB3, offset: 0x24EB3, size: 0x8, addend: 0x0, symName: __ZNSt3__117__compressed_pairImNS_9allocatorI2BAEEE5firstB8ue170006Ev, symObjAddr: 0x69B0, symBinAddr: 0x100007BF0, symSize: 0x20 }
  - { offsetInCU: 0x24ED9, offset: 0x24ED9, size: 0x8, addend: 0x0, symName: __ZNSt3__114__split_bufferIP2BANS_9allocatorIS2_EEE19__destruct_at_beginB8ue170006EPS2_, symObjAddr: 0x69D0, symBinAddr: 0x100007C10, symSize: 0x30 }
  - { offsetInCU: 0x24F0D, offset: 0x24F0D, size: 0x8, addend: 0x0, symName: __ZNSt3__114__split_bufferIP2BANS_9allocatorIS2_EEE19__destruct_at_beginEPS2_NS_17integral_constantIbLb1EEE, symObjAddr: 0x6A00, symBinAddr: 0x100007C40, symSize: 0x20 }
  - { offsetInCU: 0x24F4D, offset: 0x24F4D, size: 0x8, addend: 0x0, symName: __ZNKSt3__15dequeI2BANS_9allocatorIS1_EEE18__annotate_from_toB8ue170006EmmNS4_22__asan_annotation_typeENS4_23__asan_annotation_placeE, symObjAddr: 0x6A20, symBinAddr: 0x100007C60, symSize: 0x5F0 }
  - { offsetInCU: 0x25107, offset: 0x25107, size: 0x8, addend: 0x0, symName: __ZNKSt3__114__split_bufferIP2BANS_9allocatorIS2_EEE5beginB8ue170006Ev, symObjAddr: 0x7010, symBinAddr: 0x100008250, symSize: 0x20 }
  - { offsetInCU: 0x2512D, offset: 0x2512D, size: 0x8, addend: 0x0, symName: __ZNKSt3__15dequeI2BANS_9allocatorIS1_EEE5emptyB8ue170006Ev, symObjAddr: 0x7030, symBinAddr: 0x100008270, symSize: 0x30 }
  - { offsetInCU: 0x25153, offset: 0x25153, size: 0x8, addend: 0x0, symName: __ZNKSt3__15dequeI2BANS_9allocatorIS1_EEE44__annotate_double_ended_contiguous_containerB8ue170006EPKvS6_S6_S6_S6_S6_, symObjAddr: 0x7070, symBinAddr: 0x1000082B0, symSize: 0x30 }
  - { offsetInCU: 0x251C1, offset: 0x251C1, size: 0x8, addend: 0x0, symName: __ZNKSt3__15dequeI2BANS_9allocatorIS1_EEE22__annotate_whole_blockB8ue170006EmNS4_22__asan_annotation_typeE, symObjAddr: 0x70A0, symBinAddr: 0x1000082E0, symSize: 0xB0 }
  - { offsetInCU: 0x25232, offset: 0x25232, size: 0x8, addend: 0x0, symName: __ZNKSt3__15dequeI2BANS_9allocatorIS1_EEE23__annotate_poison_blockB8ue170006EPKvS6_, symObjAddr: 0x7150, symBinAddr: 0x100008390, symSize: 0x40 }
  - { offsetInCU: 0x25276, offset: 0x25276, size: 0x8, addend: 0x0, symName: __ZNSt3__19allocatorI2BAE10deallocateB8ue170006EPS1_m, symObjAddr: 0x7190, symBinAddr: 0x1000083D0, symSize: 0x40 }
  - { offsetInCU: 0x252B8, offset: 0x252B8, size: 0x8, addend: 0x0, symName: __ZNSt3__117__compressed_pairImNS_9allocatorI2BAEEE6secondB8ue170006Ev, symObjAddr: 0x71D0, symBinAddr: 0x100008410, symSize: 0x20 }
  - { offsetInCU: 0x252DE, offset: 0x252DE, size: 0x8, addend: 0x0, symName: __ZNSt3__122__compressed_pair_elemINS_9allocatorI2BAEELi1ELb1EE5__getB8ue170006Ev, symObjAddr: 0x71F0, symBinAddr: 0x100008430, symSize: 0x10 }
  - { offsetInCU: 0x25304, offset: 0x25304, size: 0x8, addend: 0x0, symName: __ZNSt3__114__split_bufferIP2BANS_9allocatorIS2_EEED2Ev, symObjAddr: 0x7200, symBinAddr: 0x100008440, symSize: 0x70 }
  - { offsetInCU: 0x25330, offset: 0x25330, size: 0x8, addend: 0x0, symName: __ZNSt3__114__split_bufferIP2BANS_9allocatorIS2_EEE5clearB8ue170006Ev, symObjAddr: 0x7270, symBinAddr: 0x1000084B0, symSize: 0x20 }
  - { offsetInCU: 0x25356, offset: 0x25356, size: 0x8, addend: 0x0, symName: __ZNSt3__116allocator_traitsINS_9allocatorIP2BAEEE10deallocateB8ue170006ERS4_PS3_m, symObjAddr: 0x7290, symBinAddr: 0x1000084D0, symSize: 0x30 }
  - { offsetInCU: 0x25398, offset: 0x25398, size: 0x8, addend: 0x0, symName: __ZNSt3__114__split_bufferIP2BANS_9allocatorIS2_EEE7__allocB8ue170006Ev, symObjAddr: 0x72C0, symBinAddr: 0x100008500, symSize: 0x20 }
  - { offsetInCU: 0x253BE, offset: 0x253BE, size: 0x8, addend: 0x0, symName: __ZNKSt3__114__split_bufferIP2BANS_9allocatorIS2_EEE8capacityB8ue170006Ev, symObjAddr: 0x72E0, symBinAddr: 0x100008520, symSize: 0x30 }
  - { offsetInCU: 0x253E4, offset: 0x253E4, size: 0x8, addend: 0x0, symName: __ZNSt3__114__split_bufferIP2BANS_9allocatorIS2_EEE17__destruct_at_endB8ue170006EPS2_, symObjAddr: 0x7310, symBinAddr: 0x100008550, symSize: 0x30 }
  - { offsetInCU: 0x25418, offset: 0x25418, size: 0x8, addend: 0x0, symName: __ZNSt3__114__split_bufferIP2BANS_9allocatorIS2_EEE17__destruct_at_endB8ue170006EPS2_NS_17integral_constantIbLb0EEE, symObjAddr: 0x7340, symBinAddr: 0x100008580, symSize: 0x80 }
  - { offsetInCU: 0x25458, offset: 0x25458, size: 0x8, addend: 0x0, symName: __ZNSt3__116allocator_traitsINS_9allocatorIP2BAEEE7destroyB8ue170006IS3_vEEvRS4_PT_, symObjAddr: 0x73C0, symBinAddr: 0x100008600, symSize: 0x30 }
  - { offsetInCU: 0x25495, offset: 0x25495, size: 0x8, addend: 0x0, symName: __ZNSt3__19allocatorIP2BAE7destroyB8ue170006EPS2_, symObjAddr: 0x7400, symBinAddr: 0x100008640, symSize: 0x10 }
  - { offsetInCU: 0x254C9, offset: 0x254C9, size: 0x8, addend: 0x0, symName: __ZNSt3__19allocatorIP2BAE10deallocateB8ue170006EPS2_m, symObjAddr: 0x7410, symBinAddr: 0x100008650, symSize: 0x40 }
  - { offsetInCU: 0x2550B, offset: 0x2550B, size: 0x8, addend: 0x0, symName: __ZNSt3__117__compressed_pairIPP2BANS_9allocatorIS2_EEE6secondB8ue170006Ev, symObjAddr: 0x7450, symBinAddr: 0x100008690, symSize: 0x20 }
  - { offsetInCU: 0x25531, offset: 0x25531, size: 0x8, addend: 0x0, symName: __ZNSt3__122__compressed_pair_elemINS_9allocatorIP2BAEELi1ELb1EE5__getB8ue170006Ev, symObjAddr: 0x7470, symBinAddr: 0x1000086B0, symSize: 0x10 }
  - { offsetInCU: 0x25557, offset: 0x25557, size: 0x8, addend: 0x0, symName: __ZNKSt3__114__split_bufferIP2BANS_9allocatorIS2_EEE9__end_capB8ue170006Ev, symObjAddr: 0x7480, symBinAddr: 0x1000086C0, symSize: 0x20 }
  - { offsetInCU: 0x2557D, offset: 0x2557D, size: 0x8, addend: 0x0, symName: __ZNKSt3__117__compressed_pairIPP2BANS_9allocatorIS2_EEE5firstB8ue170006Ev, symObjAddr: 0x74A0, symBinAddr: 0x1000086E0, symSize: 0x20 }
  - { offsetInCU: 0x255A3, offset: 0x255A3, size: 0x8, addend: 0x0, symName: __ZNKSt3__122__compressed_pair_elemIPP2BALi0ELb0EE5__getB8ue170006Ev, symObjAddr: 0x74C0, symBinAddr: 0x100008700, symSize: 0x10 }
  - { offsetInCU: 0x255C9, offset: 0x255C9, size: 0x8, addend: 0x0, symName: __ZNSt3__14listIP7StudentNS_9allocatorIS2_EEED2Ev, symObjAddr: 0x74D0, symBinAddr: 0x100008710, symSize: 0x20 }
  - { offsetInCU: 0x255F6, offset: 0x255F6, size: 0x8, addend: 0x0, symName: __ZNSt3__110__list_impIP7StudentNS_9allocatorIS2_EEED2Ev, symObjAddr: 0x74F0, symBinAddr: 0x100008730, symSize: 0x20 }
  - { offsetInCU: 0x25622, offset: 0x25622, size: 0x8, addend: 0x0, symName: __ZNSt3__110__list_impIP7StudentNS_9allocatorIS2_EEE5clearEv, symObjAddr: 0x7510, symBinAddr: 0x100008750, symSize: 0xE0 }
  - { offsetInCU: 0x25692, offset: 0x25692, size: 0x8, addend: 0x0, symName: __ZNKSt3__110__list_impIP7StudentNS_9allocatorIS2_EEE5emptyB8ue170006Ev, symObjAddr: 0x75F0, symBinAddr: 0x100008830, symSize: 0x30 }
  - { offsetInCU: 0x256B8, offset: 0x256B8, size: 0x8, addend: 0x0, symName: __ZNSt3__110__list_impIP7StudentNS_9allocatorIS2_EEE12__node_allocB8ue170006Ev, symObjAddr: 0x7620, symBinAddr: 0x100008860, symSize: 0x20 }
  - { offsetInCU: 0x256DE, offset: 0x256DE, size: 0x8, addend: 0x0, symName: __ZNKSt3__110__list_impIP7StudentNS_9allocatorIS2_EEE13__end_as_linkB8ue170006Ev, symObjAddr: 0x7640, symBinAddr: 0x100008880, symSize: 0x50 }
  - { offsetInCU: 0x25704, offset: 0x25704, size: 0x8, addend: 0x0, symName: __ZNSt3__110__list_impIP7StudentNS_9allocatorIS2_EEE14__unlink_nodesEPNS_16__list_node_baseIS2_PvEES9_, symObjAddr: 0x7690, symBinAddr: 0x1000088D0, symSize: 0x40 }
  - { offsetInCU: 0x25739, offset: 0x25739, size: 0x8, addend: 0x0, symName: __ZNSt3__110__list_impIP7StudentNS_9allocatorIS2_EEE4__szB8ue170006Ev, symObjAddr: 0x76D0, symBinAddr: 0x100008910, symSize: 0x20 }
  - { offsetInCU: 0x2575F, offset: 0x2575F, size: 0x8, addend: 0x0, symName: __ZNSt3__116__list_node_baseIP7StudentPvE9__as_nodeB8ue170006Ev, symObjAddr: 0x76F0, symBinAddr: 0x100008930, symSize: 0x20 }
  - { offsetInCU: 0x25785, offset: 0x25785, size: 0x8, addend: 0x0, symName: __ZNSt3__116allocator_traitsINS_9allocatorINS_11__list_nodeIP7StudentPvEEEEE7destroyB8ue170006IS4_vvEEvRS7_PT_, symObjAddr: 0x7710, symBinAddr: 0x100008950, symSize: 0x10 }
  - { offsetInCU: 0x257C0, offset: 0x257C0, size: 0x8, addend: 0x0, symName: __ZNSt3__116allocator_traitsINS_9allocatorINS_11__list_nodeIP7StudentPvEEEEE10deallocateB8ue170006ERS7_PS6_m, symObjAddr: 0x7720, symBinAddr: 0x100008960, symSize: 0x30 }
  - { offsetInCU: 0x25802, offset: 0x25802, size: 0x8, addend: 0x0, symName: __ZNKSt3__110__list_impIP7StudentNS_9allocatorIS2_EEE4__szB8ue170006Ev, symObjAddr: 0x7750, symBinAddr: 0x100008990, symSize: 0x20 }
  - { offsetInCU: 0x25828, offset: 0x25828, size: 0x8, addend: 0x0, symName: __ZNKSt3__117__compressed_pairImNS_9allocatorINS_11__list_nodeIP7StudentPvEEEEE5firstB8ue170006Ev, symObjAddr: 0x7770, symBinAddr: 0x1000089B0, symSize: 0x20 }
  - { offsetInCU: 0x2584E, offset: 0x2584E, size: 0x8, addend: 0x0, symName: __ZNSt3__117__compressed_pairImNS_9allocatorINS_11__list_nodeIP7StudentPvEEEEE6secondB8ue170006Ev, symObjAddr: 0x7790, symBinAddr: 0x1000089D0, symSize: 0x20 }
  - { offsetInCU: 0x25874, offset: 0x25874, size: 0x8, addend: 0x0, symName: __ZNSt3__122__compressed_pair_elemINS_9allocatorINS_11__list_nodeIP7StudentPvEEEELi1ELb1EE5__getB8ue170006Ev, symObjAddr: 0x77B0, symBinAddr: 0x1000089F0, symSize: 0x10 }
  - { offsetInCU: 0x2589A, offset: 0x2589A, size: 0x8, addend: 0x0, symName: __ZNSt3__126__list_node_pointer_traitsIP7StudentPvE26__unsafe_link_pointer_castB8ue170006EPNS_16__list_node_baseIS2_S3_EE, symObjAddr: 0x77C0, symBinAddr: 0x100008A00, symSize: 0x10 }
  - { offsetInCU: 0x258BE, offset: 0x258BE, size: 0x8, addend: 0x0, symName: __ZNSt3__116__list_node_baseIP7StudentPvE6__selfB8ue170006Ev, symObjAddr: 0x77D0, symBinAddr: 0x100008A10, symSize: 0x20 }
  - { offsetInCU: 0x258E9, offset: 0x258E9, size: 0x8, addend: 0x0, symName: __ZNSt3__114pointer_traitsIPNS_16__list_node_baseIP7StudentPvEEE10pointer_toB8ue170006ERS5_, symObjAddr: 0x77F0, symBinAddr: 0x100008A30, symSize: 0x10 }
  - { offsetInCU: 0x2590C, offset: 0x2590C, size: 0x8, addend: 0x0, symName: __ZNSt3__117__compressed_pairImNS_9allocatorINS_11__list_nodeIP7StudentPvEEEEE5firstB8ue170006Ev, symObjAddr: 0x7800, symBinAddr: 0x100008A40, symSize: 0x20 }
  - { offsetInCU: 0x25932, offset: 0x25932, size: 0x8, addend: 0x0, symName: __ZNSt3__19allocatorINS_11__list_nodeIP7StudentPvEEE10deallocateB8ue170006EPS5_m, symObjAddr: 0x7820, symBinAddr: 0x100008A60, symSize: 0x50 }
  - { offsetInCU: 0x25974, offset: 0x25974, size: 0x8, addend: 0x0, symName: __ZN2MAC2Ev, symObjAddr: 0x7870, symBinAddr: 0x100008AB0, symSize: 0x40 }
  - { offsetInCU: 0x2599E, offset: 0x2599E, size: 0x8, addend: 0x0, symName: __ZN3PHDC2Ev, symObjAddr: 0x78B0, symBinAddr: 0x100008AF0, symSize: 0x40 }
  - { offsetInCU: 0x259E6, offset: 0x259E6, size: 0x8, addend: 0x0, symName: __ZNKSt3__113basic_ostreamIcNS_11char_traitsIcEEE6sentrycvbB8ue170006Ev, symObjAddr: 0x7AE0, symBinAddr: 0x100008D20, symSize: 0x20 }
  - { offsetInCU: 0x25A0C, offset: 0x25A0C, size: 0x8, addend: 0x0, symName: __ZNSt3__119ostreambuf_iteratorIcNS_11char_traitsIcEEEC1B8ue170006ERNS_13basic_ostreamIcS2_EE, symObjAddr: 0x7D20, symBinAddr: 0x100008F60, symSize: 0x30 }
  - { offsetInCU: 0x25A44, offset: 0x25A44, size: 0x8, addend: 0x0, symName: __ZNKSt3__18ios_base5flagsB8ue170006Ev, symObjAddr: 0x7D50, symBinAddr: 0x100008F90, symSize: 0x20 }
  - { offsetInCU: 0x25A6C, offset: 0x25A6C, size: 0x8, addend: 0x0, symName: __ZNKSt3__19basic_iosIcNS_11char_traitsIcEEE4fillB8ue170006Ev, symObjAddr: 0x7D70, symBinAddr: 0x100008FB0, symSize: 0x70 }
  - { offsetInCU: 0x25A94, offset: 0x25A94, size: 0x8, addend: 0x0, symName: __ZNKSt3__119ostreambuf_iteratorIcNS_11char_traitsIcEEE6failedB8ue170006Ev, symObjAddr: 0x7DE0, symBinAddr: 0x100009020, symSize: 0x20 }
  - { offsetInCU: 0x25ABA, offset: 0x25ABA, size: 0x8, addend: 0x0, symName: __ZNSt3__19basic_iosIcNS_11char_traitsIcEEE8setstateB8ue170006Ej, symObjAddr: 0x7E00, symBinAddr: 0x100009040, symSize: 0x30 }
  - { offsetInCU: 0x25AEF, offset: 0x25AEF, size: 0x8, addend: 0x0, symName: __ZNKSt3__18ios_base5widthB8ue170006Ev, symObjAddr: 0x7E30, symBinAddr: 0x100009070, symSize: 0x20 }
  - { offsetInCU: 0x25B17, offset: 0x25B17, size: 0x8, addend: 0x0, symName: __ZNSt3__115basic_streambufIcNS_11char_traitsIcEEE5sputnB8ue170006EPKcl, symObjAddr: 0x7E50, symBinAddr: 0x100009090, symSize: 0x30 }
  - { offsetInCU: 0x25B59, offset: 0x25B59, size: 0x8, addend: 0x0, symName: __ZNSt3__112basic_stringIcNS_11char_traitsIcEENS_9allocatorIcEEEC1B8ue170006Emc, symObjAddr: 0x7E80, symBinAddr: 0x1000090C0, symSize: 0x30 }
  - { offsetInCU: 0x25BA1, offset: 0x25BA1, size: 0x8, addend: 0x0, symName: __ZNKSt3__112basic_stringIcNS_11char_traitsIcEENS_9allocatorIcEEE4dataB8ue170006Ev, symObjAddr: 0x7EB0, symBinAddr: 0x1000090F0, symSize: 0x30 }
  - { offsetInCU: 0x25BC7, offset: 0x25BC7, size: 0x8, addend: 0x0, symName: __ZNSt3__18ios_base5widthB8ue170006El, symObjAddr: 0x7EE0, symBinAddr: 0x100009120, symSize: 0x30 }
  - { offsetInCU: 0x25C0D, offset: 0x25C0D, size: 0x8, addend: 0x0, symName: __ZNSt3__112basic_stringIcNS_11char_traitsIcEENS_9allocatorIcEEEC2B8ue170006Emc, symObjAddr: 0x7F10, symBinAddr: 0x100009150, symSize: 0x50 }
  - { offsetInCU: 0x25C55, offset: 0x25C55, size: 0x8, addend: 0x0, symName: __ZNKSt3__112basic_stringIcNS_11char_traitsIcEENS_9allocatorIcEEE13__get_pointerB8ue170006Ev, symObjAddr: 0x7F70, symBinAddr: 0x1000091B0, symSize: 0x50 }
  - { offsetInCU: 0x25C7B, offset: 0x25C7B, size: 0x8, addend: 0x0, symName: __ZNKSt3__112basic_stringIcNS_11char_traitsIcEENS_9allocatorIcEEE9__is_longB8ue170006Ev, symObjAddr: 0x7FC0, symBinAddr: 0x100009200, symSize: 0x30 }
  - { offsetInCU: 0x25CA1, offset: 0x25CA1, size: 0x8, addend: 0x0, symName: __ZNKSt3__112basic_stringIcNS_11char_traitsIcEENS_9allocatorIcEEE18__get_long_pointerB8ue170006Ev, symObjAddr: 0x7FF0, symBinAddr: 0x100009230, symSize: 0x20 }
  - { offsetInCU: 0x25CC7, offset: 0x25CC7, size: 0x8, addend: 0x0, symName: __ZNKSt3__112basic_stringIcNS_11char_traitsIcEENS_9allocatorIcEEE19__get_short_pointerB8ue170006Ev, symObjAddr: 0x8010, symBinAddr: 0x100009250, symSize: 0x30 }
  - { offsetInCU: 0x25CED, offset: 0x25CED, size: 0x8, addend: 0x0, symName: __ZNKSt3__117__compressed_pairINS_12basic_stringIcNS_11char_traitsIcEENS_9allocatorIcEEE5__repES5_E5firstB8ue170006Ev, symObjAddr: 0x8040, symBinAddr: 0x100009280, symSize: 0x20 }
  - { offsetInCU: 0x25D13, offset: 0x25D13, size: 0x8, addend: 0x0, symName: __ZNKSt3__122__compressed_pair_elemINS_12basic_stringIcNS_11char_traitsIcEENS_9allocatorIcEEE5__repELi0ELb0EE5__getB8ue170006Ev, symObjAddr: 0x8060, symBinAddr: 0x1000092A0, symSize: 0x10 }
  - { offsetInCU: 0x25D39, offset: 0x25D39, size: 0x8, addend: 0x0, symName: __ZNSt3__114pointer_traitsIPKcE10pointer_toB8ue170006ERS1_, symObjAddr: 0x8070, symBinAddr: 0x1000092B0, symSize: 0x10 }
  - { offsetInCU: 0x25D5C, offset: 0x25D5C, size: 0x8, addend: 0x0, symName: __ZNSt3__119ostreambuf_iteratorIcNS_11char_traitsIcEEEC2B8ue170006ERNS_13basic_ostreamIcS2_EE, symObjAddr: 0x8080, symBinAddr: 0x1000092C0, symSize: 0x50 }
  - { offsetInCU: 0x25D94, offset: 0x25D94, size: 0x8, addend: 0x0, symName: __ZNKSt3__19basic_iosIcNS_11char_traitsIcEEE5rdbufB8ue170006Ev, symObjAddr: 0x80D0, symBinAddr: 0x100009310, symSize: 0x20 }
  - { offsetInCU: 0x25DBC, offset: 0x25DBC, size: 0x8, addend: 0x0, symName: __ZNKSt3__18ios_base5rdbufB8ue170006Ev, symObjAddr: 0x80F0, symBinAddr: 0x100009330, symSize: 0x20 }
  - { offsetInCU: 0x25DE2, offset: 0x25DE2, size: 0x8, addend: 0x0, symName: __ZNSt3__111char_traitsIcE11eq_int_typeB8ue170006Eii, symObjAddr: 0x8110, symBinAddr: 0x100009350, symSize: 0x20 }
  - { offsetInCU: 0x25E15, offset: 0x25E15, size: 0x8, addend: 0x0, symName: __ZNSt3__111char_traitsIcE3eofB8ue170006Ev, symObjAddr: 0x8130, symBinAddr: 0x100009370, symSize: 0x10 }
  - { offsetInCU: 0x25E29, offset: 0x25E29, size: 0x8, addend: 0x0, symName: __ZNKSt3__19basic_iosIcNS_11char_traitsIcEEE5widenB8ue170006Ec, symObjAddr: 0x8140, symBinAddr: 0x100009380, symSize: 0x80 }
  - { offsetInCU: 0x25E88, offset: 0x25E88, size: 0x8, addend: 0x0, symName: __ZNKSt3__15ctypeIcE5widenB8ue170006Ec, symObjAddr: 0x81F0, symBinAddr: 0x100009430, symSize: 0x30 }
  - { offsetInCU: 0x25EBD, offset: 0x25EBD, size: 0x8, addend: 0x0, symName: __ZNSt3__18ios_base8setstateB8ue170006Ej, symObjAddr: 0x8220, symBinAddr: 0x100009460, symSize: 0x30 }
  - { offsetInCU: 0x25F82, offset: 0x25F82, size: 0x8, addend: 0x0, symName: __ZNKSt3__113basic_istreamIcNS_11char_traitsIcEEE6sentrycvbB8ue170006Ev, symObjAddr: 0x8250, symBinAddr: 0x100009490, symSize: 0x20 }
  - { offsetInCU: 0x25FA8, offset: 0x25FA8, size: 0x8, addend: 0x0, symName: __ZNSt3__112basic_stringIcNS_11char_traitsIcEENS_9allocatorIcEEE5clearB8ue170006Ev, symObjAddr: 0x8270, symBinAddr: 0x1000094B0, symSize: 0x80 }
  - { offsetInCU: 0x25FD0, offset: 0x25FD0, size: 0x8, addend: 0x0, symName: __ZNKSt3__112basic_stringIcNS_11char_traitsIcEENS_9allocatorIcEEE8max_sizeB8ue170006Ev, symObjAddr: 0x82F0, symBinAddr: 0x100009530, symSize: 0xA0 }
  - { offsetInCU: 0x26022, offset: 0x26022, size: 0x8, addend: 0x0, symName: __ZNSt3__114numeric_limitsIlE3maxB8ue170006Ev, symObjAddr: 0x8390, symBinAddr: 0x1000095D0, symSize: 0x10 }
  - { offsetInCU: 0x26036, offset: 0x26036, size: 0x8, addend: 0x0, symName: __ZNSt3__115basic_streambufIcNS_11char_traitsIcEEE5sgetcB8ue170006Ev, symObjAddr: 0x83A0, symBinAddr: 0x1000095E0, symSize: 0x50 }
  - { offsetInCU: 0x2605C, offset: 0x2605C, size: 0x8, addend: 0x0, symName: __ZNSt3__111char_traitsIcE12to_char_typeB8ue170006Ei, symObjAddr: 0x83F0, symBinAddr: 0x100009630, symSize: 0x10 }
  - { offsetInCU: 0x2607F, offset: 0x2607F, size: 0x8, addend: 0x0, symName: __ZNKSt3__15ctypeIcE2isB8ue170006Ejc, symObjAddr: 0x8400, symBinAddr: 0x100009640, symSize: 0x70 }
  - { offsetInCU: 0x260C3, offset: 0x260C3, size: 0x8, addend: 0x0, symName: __ZNSt3__115basic_streambufIcNS_11char_traitsIcEEE6sbumpcB8ue170006Ev, symObjAddr: 0x8470, symBinAddr: 0x1000096B0, symSize: 0x60 }
  - { offsetInCU: 0x260E9, offset: 0x260E9, size: 0x8, addend: 0x0, symName: __ZNSt3__18ios_base18__setstate_nothrowB8ue170006Ej, symObjAddr: 0x84D0, symBinAddr: 0x100009710, symSize: 0x50 }
  - { offsetInCU: 0x2611E, offset: 0x2611E, size: 0x8, addend: 0x0, symName: __ZNKSt3__19basic_iosIcNS_11char_traitsIcEEE10exceptionsB8ue170006Ev, symObjAddr: 0x8520, symBinAddr: 0x100009760, symSize: 0x20 }
  - { offsetInCU: 0x26144, offset: 0x26144, size: 0x8, addend: 0x0, symName: __ZNSt3__111char_traitsIcE6assignB8ue170006ERcRKc, symObjAddr: 0x8540, symBinAddr: 0x100009780, symSize: 0x20 }
  - { offsetInCU: 0x26175, offset: 0x26175, size: 0x8, addend: 0x0, symName: __ZNSt3__112basic_stringIcNS_11char_traitsIcEENS_9allocatorIcEEE18__get_long_pointerB8ue170006Ev, symObjAddr: 0x8560, symBinAddr: 0x1000097A0, symSize: 0x20 }
  - { offsetInCU: 0x2619B, offset: 0x2619B, size: 0x8, addend: 0x0, symName: __ZNSt3__112basic_stringIcNS_11char_traitsIcEENS_9allocatorIcEEE15__set_long_sizeB8ue170006Em, symObjAddr: 0x8580, symBinAddr: 0x1000097C0, symSize: 0x30 }
  - { offsetInCU: 0x261D0, offset: 0x261D0, size: 0x8, addend: 0x0, symName: __ZNSt3__112basic_stringIcNS_11char_traitsIcEENS_9allocatorIcEEE19__get_short_pointerB8ue170006Ev, symObjAddr: 0x85B0, symBinAddr: 0x1000097F0, symSize: 0x30 }
  - { offsetInCU: 0x261F6, offset: 0x261F6, size: 0x8, addend: 0x0, symName: __ZNSt3__112basic_stringIcNS_11char_traitsIcEENS_9allocatorIcEEE16__set_short_sizeB8ue170006Em, symObjAddr: 0x85E0, symBinAddr: 0x100009820, symSize: 0x50 }
  - { offsetInCU: 0x2622B, offset: 0x2622B, size: 0x8, addend: 0x0, symName: __ZNSt3__117__compressed_pairINS_12basic_stringIcNS_11char_traitsIcEENS_9allocatorIcEEE5__repES5_E5firstB8ue170006Ev, symObjAddr: 0x8630, symBinAddr: 0x100009870, symSize: 0x20 }
  - { offsetInCU: 0x26251, offset: 0x26251, size: 0x8, addend: 0x0, symName: __ZNSt3__122__compressed_pair_elemINS_12basic_stringIcNS_11char_traitsIcEENS_9allocatorIcEEE5__repELi0ELb0EE5__getB8ue170006Ev, symObjAddr: 0x8650, symBinAddr: 0x100009890, symSize: 0x10 }
  - { offsetInCU: 0x26277, offset: 0x26277, size: 0x8, addend: 0x0, symName: __ZNSt3__114pointer_traitsIPcE10pointer_toB8ue170006ERc, symObjAddr: 0x8660, symBinAddr: 0x1000098A0, symSize: 0x10 }
  - { offsetInCU: 0x262A4, offset: 0x262A4, size: 0x8, addend: 0x0, symName: __ZNSt3__116allocator_traitsINS_9allocatorIcEEE8max_sizeB8ue170006IS2_vEEmRKS2_, symObjAddr: 0x8670, symBinAddr: 0x1000098B0, symSize: 0x20 }
  - { offsetInCU: 0x262D2, offset: 0x262D2, size: 0x8, addend: 0x0, symName: __ZNKSt3__112basic_stringIcNS_11char_traitsIcEENS_9allocatorIcEEE7__allocB8ue170006Ev, symObjAddr: 0x8690, symBinAddr: 0x1000098D0, symSize: 0x20 }
  - { offsetInCU: 0x262F8, offset: 0x262F8, size: 0x8, addend: 0x0, symName: __ZNSt3__114numeric_limitsImE3maxB8ue170006Ev, symObjAddr: 0x86B0, symBinAddr: 0x1000098F0, symSize: 0x10 }
  - { offsetInCU: 0x2630C, offset: 0x2630C, size: 0x8, addend: 0x0, symName: __ZNKSt3__19allocatorIcE8max_sizeB8ue170006Ev, symObjAddr: 0x86C0, symBinAddr: 0x100009900, symSize: 0x20 }
  - { offsetInCU: 0x26332, offset: 0x26332, size: 0x8, addend: 0x0, symName: __ZNKSt3__117__compressed_pairINS_12basic_stringIcNS_11char_traitsIcEENS_9allocatorIcEEE5__repES5_E6secondB8ue170006Ev, symObjAddr: 0x86E0, symBinAddr: 0x100009920, symSize: 0x20 }
  - { offsetInCU: 0x26358, offset: 0x26358, size: 0x8, addend: 0x0, symName: __ZNKSt3__122__compressed_pair_elemINS_9allocatorIcEELi1ELb1EE5__getB8ue170006Ev, symObjAddr: 0x8700, symBinAddr: 0x100009940, symSize: 0x10 }
  - { offsetInCU: 0x2637E, offset: 0x2637E, size: 0x8, addend: 0x0, symName: __ZNSt3__123__libcpp_numeric_limitsImLb1EE3maxB8ue170006Ev, symObjAddr: 0x8710, symBinAddr: 0x100009950, symSize: 0x10 }
  - { offsetInCU: 0x26392, offset: 0x26392, size: 0x8, addend: 0x0, symName: __ZNSt3__123__libcpp_numeric_limitsIlLb1EE3maxB8ue170006Ev, symObjAddr: 0x8720, symBinAddr: 0x100009960, symSize: 0x10 }
  - { offsetInCU: 0x263A6, offset: 0x263A6, size: 0x8, addend: 0x0, symName: __ZNSt3__111char_traitsIcE11to_int_typeB8ue170006Ec, symObjAddr: 0x8730, symBinAddr: 0x100009970, symSize: 0x10 }
  - { offsetInCU: 0x263C9, offset: 0x263C9, size: 0x8, addend: 0x0, symName: __Z7isasciii, symObjAddr: 0x8740, symBinAddr: 0x100009980, symSize: 0x20 }
  - { offsetInCU: 0x263F6, offset: 0x263F6, size: 0x8, addend: 0x0, symName: __ZNKSt3__18ios_base10exceptionsB8ue170006Ev, symObjAddr: 0x8760, symBinAddr: 0x1000099A0, symSize: 0x20 }
  - { offsetInCU: 0x2641E, offset: 0x2641E, size: 0x8, addend: 0x0, symName: __ZNKSt3__112basic_stringIcNS_11char_traitsIcEENS_9allocatorIcEEE4sizeB8ue170006Ev, symObjAddr: 0x8780, symBinAddr: 0x1000099C0, symSize: 0x50 }
  - { offsetInCU: 0x26444, offset: 0x26444, size: 0x8, addend: 0x0, symName: __ZNKSt3__112basic_stringIcNS_11char_traitsIcEENS_9allocatorIcEEE15__get_long_sizeB8ue170006Ev, symObjAddr: 0x87D0, symBinAddr: 0x100009A10, symSize: 0x20 }
  - { offsetInCU: 0x2646A, offset: 0x2646A, size: 0x8, addend: 0x0, symName: __ZNKSt3__112basic_stringIcNS_11char_traitsIcEENS_9allocatorIcEEE16__get_short_sizeB8ue170006Ev, symObjAddr: 0x87F0, symBinAddr: 0x100009A30, symSize: 0x30 }
  - { offsetInCU: 0x26490, offset: 0x26490, size: 0x8, addend: 0x0, symName: __ZNSt3__111char_traitsIcE7compareB8ue170006EPKcS3_m, symObjAddr: 0x8930, symBinAddr: 0x100009B70, symSize: 0x30 }
  - { offsetInCU: 0x264CF, offset: 0x264CF, size: 0x8, addend: 0x0, symName: __ZNSt3__14listIP7StudentNS_9allocatorIS2_EEEC2B8ue170006Ev, symObjAddr: 0x8960, symBinAddr: 0x100009BA0, symSize: 0x20 }
  - { offsetInCU: 0x264F9, offset: 0x264F9, size: 0x8, addend: 0x0, symName: __ZNSt3__110__list_impIP7StudentNS_9allocatorIS2_EEEC2Ev, symObjAddr: 0x8980, symBinAddr: 0x100009BC0, symSize: 0x50 }
  - { offsetInCU: 0x26525, offset: 0x26525, size: 0x8, addend: 0x0, symName: __ZNSt3__116__list_node_baseIP7StudentPvEC1B8ue170006Ev, symObjAddr: 0x89D0, symBinAddr: 0x100009C10, symSize: 0x20 }
  - { offsetInCU: 0x26554, offset: 0x26554, size: 0x8, addend: 0x0, symName: __ZNSt3__117__compressed_pairImNS_9allocatorINS_11__list_nodeIP7StudentPvEEEEEC1B8ue170006IiNS_18__default_init_tagEEEOT_OT0_, symObjAddr: 0x89F0, symBinAddr: 0x100009C30, symSize: 0x30 }
  - { offsetInCU: 0x265AC, offset: 0x265AC, size: 0x8, addend: 0x0, symName: __ZNSt3__116__list_node_baseIP7StudentPvEC2B8ue170006Ev, symObjAddr: 0x8A20, symBinAddr: 0x100009C60, symSize: 0x50 }
  - { offsetInCU: 0x265D6, offset: 0x265D6, size: 0x8, addend: 0x0, symName: __ZNSt3__117__compressed_pairImNS_9allocatorINS_11__list_nodeIP7StudentPvEEEEEC2B8ue170006IiNS_18__default_init_tagEEEOT_OT0_, symObjAddr: 0x8A70, symBinAddr: 0x100009CB0, symSize: 0x40 }
  - { offsetInCU: 0x2662E, offset: 0x2662E, size: 0x8, addend: 0x0, symName: __ZNSt3__122__compressed_pair_elemImLi0ELb0EEC2B8ue170006IivEEOT_, symObjAddr: 0x8AB0, symBinAddr: 0x100009CF0, symSize: 0x20 }
  - { offsetInCU: 0x26670, offset: 0x26670, size: 0x8, addend: 0x0, symName: __ZNSt3__122__compressed_pair_elemINS_9allocatorINS_11__list_nodeIP7StudentPvEEEELi1ELb1EEC2B8ue170006ENS_18__default_init_tagE, symObjAddr: 0x8AD0, symBinAddr: 0x100009D10, symSize: 0x20 }
  - { offsetInCU: 0x266A4, offset: 0x266A4, size: 0x8, addend: 0x0, symName: __ZNSt3__19allocatorINS_11__list_nodeIP7StudentPvEEEC2B8ue170006Ev, symObjAddr: 0x8AF0, symBinAddr: 0x100009D30, symSize: 0x20 }
  - { offsetInCU: 0x266CE, offset: 0x266CE, size: 0x8, addend: 0x0, symName: __ZNSt3__116__non_trivial_ifILb1ENS_9allocatorINS_11__list_nodeIP7StudentPvEEEEEC2B8ue170006Ev, symObjAddr: 0x8B10, symBinAddr: 0x100009D50, symSize: 0x10 }
  - { offsetInCU: 0x266F8, offset: 0x266F8, size: 0x8, addend: 0x0, symName: __ZNSt3__115__list_iteratorIP7StudentPvEC2B8ue170006Ev, symObjAddr: 0x8B20, symBinAddr: 0x100009D60, symSize: 0x20 }
  - { offsetInCU: 0x26722, offset: 0x26722, size: 0x8, addend: 0x0, symName: __ZNSt3__110__list_impIP7StudentNS_9allocatorIS2_EEE5beginB8ue170006Ev, symObjAddr: 0x8B40, symBinAddr: 0x100009D80, symSize: 0x30 }
  - { offsetInCU: 0x26748, offset: 0x26748, size: 0x8, addend: 0x0, symName: __ZNSt3__115__list_iteratorIP7StudentPvEC1B8ue170006EPNS_16__list_node_baseIS2_S3_EE, symObjAddr: 0x8B70, symBinAddr: 0x100009DB0, symSize: 0x30 }
  - { offsetInCU: 0x26781, offset: 0x26781, size: 0x8, addend: 0x0, symName: __ZNSt3__115__list_iteratorIP7StudentPvEC2B8ue170006EPNS_16__list_node_baseIS2_S3_EE, symObjAddr: 0x8BA0, symBinAddr: 0x100009DE0, symSize: 0x20 }
  - { offsetInCU: 0x267BA, offset: 0x267BA, size: 0x8, addend: 0x0, symName: __ZNSt3__14listIP7StudentNS_9allocatorIS2_EEE15__allocate_nodeB8ue170006ERNS3_INS_11__list_nodeIS2_PvEEEE, symObjAddr: 0x8BC0, symBinAddr: 0x100009E00, symSize: 0x80 }
  - { offsetInCU: 0x26803, offset: 0x26803, size: 0x8, addend: 0x0, symName: __ZNSt3__116allocator_traitsINS_9allocatorINS_11__list_nodeIP7StudentPvEEEEE9constructB8ue170006IS4_JS4_EvEEvRS7_PT_DpOT0_, symObjAddr: 0x8C40, symBinAddr: 0x100009E80, symSize: 0x30 }
  - { offsetInCU: 0x2685A, offset: 0x2685A, size: 0x8, addend: 0x0, symName: __ZNKSt3__110unique_ptrINS_11__list_nodeIP7StudentPvEENS_22__allocator_destructorINS_9allocatorIS5_EEEEEptB8ue170006Ev, symObjAddr: 0x8C70, symBinAddr: 0x100009EB0, symSize: 0x20 }
  - { offsetInCU: 0x26880, offset: 0x26880, size: 0x8, addend: 0x0, symName: __ZNSt3__14listIP7StudentNS_9allocatorIS2_EEE20__link_nodes_at_backEPNS_16__list_node_baseIS2_PvEES9_, symObjAddr: 0x8C90, symBinAddr: 0x100009ED0, symSize: 0x60 }
  - { offsetInCU: 0x268C6, offset: 0x268C6, size: 0x8, addend: 0x0, symName: __ZNKSt3__110unique_ptrINS_11__list_nodeIP7StudentPvEENS_22__allocator_destructorINS_9allocatorIS5_EEEEE3getB8ue170006Ev, symObjAddr: 0x8CF0, symBinAddr: 0x100009F30, symSize: 0x20 }
  - { offsetInCU: 0x268EC, offset: 0x268EC, size: 0x8, addend: 0x0, symName: __ZNSt3__111__list_nodeIP7StudentPvE9__as_linkB8ue170006Ev, symObjAddr: 0x8D10, symBinAddr: 0x100009F50, symSize: 0x20 }
  - { offsetInCU: 0x26912, offset: 0x26912, size: 0x8, addend: 0x0, symName: __ZNSt3__110unique_ptrINS_11__list_nodeIP7StudentPvEENS_22__allocator_destructorINS_9allocatorIS5_EEEEE7releaseB8ue170006Ev, symObjAddr: 0x8D30, symBinAddr: 0x100009F70, symSize: 0x40 }
  - { offsetInCU: 0x26947, offset: 0x26947, size: 0x8, addend: 0x0, symName: __ZNSt3__110unique_ptrINS_11__list_nodeIP7StudentPvEENS_22__allocator_destructorINS_9allocatorIS5_EEEEED1B8ue170006Ev, symObjAddr: 0x8D70, symBinAddr: 0x100009FB0, symSize: 0x20 }
  - { offsetInCU: 0x26971, offset: 0x26971, size: 0x8, addend: 0x0, symName: __ZNSt3__116allocator_traitsINS_9allocatorINS_11__list_nodeIP7StudentPvEEEEE8allocateB8ue170006ERS7_m, symObjAddr: 0x8D90, symBinAddr: 0x100009FD0, symSize: 0x30 }
  - { offsetInCU: 0x269A4, offset: 0x269A4, size: 0x8, addend: 0x0, symName: __ZNSt3__122__allocator_destructorINS_9allocatorINS_11__list_nodeIP7StudentPvEEEEEC1B8ue170006ERS7_m, symObjAddr: 0x8DC0, symBinAddr: 0x10000A000, symSize: 0x30 }
  - { offsetInCU: 0x269EF, offset: 0x269EF, size: 0x8, addend: 0x0, symName: __ZNSt3__110unique_ptrINS_11__list_nodeIP7StudentPvEENS_22__allocator_destructorINS_9allocatorIS5_EEEEEC1B8ue170006ILb1EvEEPS5_NS_16__dependent_typeINS_27__unique_ptr_deleter_sfinaeIS9_EEXT_EE20__good_rval_ref_typeE, symObjAddr: 0x8DF0, symBinAddr: 0x10000A030, symSize: 0x30 }
  - { offsetInCU: 0x26A40, offset: 0x26A40, size: 0x8, addend: 0x0, symName: __ZNSt3__19allocatorINS_11__list_nodeIP7StudentPvEEE8allocateB8ue170006Em, symObjAddr: 0x8E20, symBinAddr: 0x10000A060, symSize: 0x50 }
  - { offsetInCU: 0x26A7E, offset: 0x26A7E, size: 0x8, addend: 0x0, symName: __ZNSt3__116allocator_traitsINS_9allocatorINS_11__list_nodeIP7StudentPvEEEEE8max_sizeB8ue170006IS7_vEEmRKS7_, symObjAddr: 0x8E70, symBinAddr: 0x10000A0B0, symSize: 0x20 }
  - { offsetInCU: 0x26AAC, offset: 0x26AAC, size: 0x8, addend: 0x0, symName: __ZNKSt3__19allocatorINS_11__list_nodeIP7StudentPvEEE8max_sizeB8ue170006Ev, symObjAddr: 0x8EF0, symBinAddr: 0x10000A130, symSize: 0x20 }
  - { offsetInCU: 0x26AD2, offset: 0x26AD2, size: 0x8, addend: 0x0, symName: __ZNSt3__122__allocator_destructorINS_9allocatorINS_11__list_nodeIP7StudentPvEEEEEC2B8ue170006ERS7_m, symObjAddr: 0x8F30, symBinAddr: 0x10000A170, symSize: 0x30 }
  - { offsetInCU: 0x26B18, offset: 0x26B18, size: 0x8, addend: 0x0, symName: __ZNSt3__110unique_ptrINS_11__list_nodeIP7StudentPvEENS_22__allocator_destructorINS_9allocatorIS5_EEEEEC2B8ue170006ILb1EvEEPS5_NS_16__dependent_typeINS_27__unique_ptr_deleter_sfinaeIS9_EEXT_EE20__good_rval_ref_typeE, symObjAddr: 0x8F60, symBinAddr: 0x10000A1A0, symSize: 0x40 }
  - { offsetInCU: 0x26B69, offset: 0x26B69, size: 0x8, addend: 0x0, symName: __ZNSt3__117__compressed_pairIPNS_11__list_nodeIP7StudentPvEENS_22__allocator_destructorINS_9allocatorIS5_EEEEEC1B8ue170006IRS6_SA_EEOT_OT0_, symObjAddr: 0x8FA0, symBinAddr: 0x10000A1E0, symSize: 0x30 }
  - { offsetInCU: 0x26BC1, offset: 0x26BC1, size: 0x8, addend: 0x0, symName: __ZNSt3__117__compressed_pairIPNS_11__list_nodeIP7StudentPvEENS_22__allocator_destructorINS_9allocatorIS5_EEEEEC2B8ue170006IRS6_SA_EEOT_OT0_, symObjAddr: 0x8FD0, symBinAddr: 0x10000A210, symSize: 0x40 }
  - { offsetInCU: 0x26C19, offset: 0x26C19, size: 0x8, addend: 0x0, symName: __ZNSt3__122__compressed_pair_elemIPNS_11__list_nodeIP7StudentPvEELi0ELb0EEC2B8ue170006IRS6_vEEOT_, symObjAddr: 0x9010, symBinAddr: 0x10000A250, symSize: 0x20 }
  - { offsetInCU: 0x26C5B, offset: 0x26C5B, size: 0x8, addend: 0x0, symName: __ZNSt3__122__compressed_pair_elemINS_22__allocator_destructorINS_9allocatorINS_11__list_nodeIP7StudentPvEEEEEELi1ELb0EEC2B8ue170006IS9_vEEOT_, symObjAddr: 0x9030, symBinAddr: 0x10000A270, symSize: 0x30 }
  - { offsetInCU: 0x26C9D, offset: 0x26C9D, size: 0x8, addend: 0x0, symName: __ZNSt3__19allocatorINS_11__list_nodeIP7StudentPvEEE9constructB8ue170006IS3_JS3_EEEvPT_DpOT0_, symObjAddr: 0x9060, symBinAddr: 0x10000A2A0, symSize: 0x20 }
  - { offsetInCU: 0x26CF3, offset: 0x26CF3, size: 0x8, addend: 0x0, symName: __ZNKSt3__117__compressed_pairIPNS_11__list_nodeIP7StudentPvEENS_22__allocator_destructorINS_9allocatorIS5_EEEEE5firstB8ue170006Ev, symObjAddr: 0x9080, symBinAddr: 0x10000A2C0, symSize: 0x20 }
  - { offsetInCU: 0x26D19, offset: 0x26D19, size: 0x8, addend: 0x0, symName: __ZNKSt3__122__compressed_pair_elemIPNS_11__list_nodeIP7StudentPvEELi0ELb0EE5__getB8ue170006Ev, symObjAddr: 0x90A0, symBinAddr: 0x10000A2E0, symSize: 0x10 }
  - { offsetInCU: 0x26D3F, offset: 0x26D3F, size: 0x8, addend: 0x0, symName: __ZNSt3__117__compressed_pairIPNS_11__list_nodeIP7StudentPvEENS_22__allocator_destructorINS_9allocatorIS5_EEEEE5firstB8ue170006Ev, symObjAddr: 0x90B0, symBinAddr: 0x10000A2F0, symSize: 0x20 }
  - { offsetInCU: 0x26D65, offset: 0x26D65, size: 0x8, addend: 0x0, symName: __ZNSt3__122__compressed_pair_elemIPNS_11__list_nodeIP7StudentPvEELi0ELb0EE5__getB8ue170006Ev, symObjAddr: 0x90D0, symBinAddr: 0x10000A310, symSize: 0x10 }
  - { offsetInCU: 0x26D8B, offset: 0x26D8B, size: 0x8, addend: 0x0, symName: __ZNSt3__110unique_ptrINS_11__list_nodeIP7StudentPvEENS_22__allocator_destructorINS_9allocatorIS5_EEEEED2B8ue170006Ev, symObjAddr: 0x90E0, symBinAddr: 0x10000A320, symSize: 0x20 }
  - { offsetInCU: 0x26DB5, offset: 0x26DB5, size: 0x8, addend: 0x0, symName: __ZNSt3__110unique_ptrINS_11__list_nodeIP7StudentPvEENS_22__allocator_destructorINS_9allocatorIS5_EEEEE5resetB8ue170006EPS5_, symObjAddr: 0x9100, symBinAddr: 0x10000A340, symSize: 0x70 }
  - { offsetInCU: 0x26DF9, offset: 0x26DF9, size: 0x8, addend: 0x0, symName: __ZNSt3__117__compressed_pairIPNS_11__list_nodeIP7StudentPvEENS_22__allocator_destructorINS_9allocatorIS5_EEEEE6secondB8ue170006Ev, symObjAddr: 0x9170, symBinAddr: 0x10000A3B0, symSize: 0x20 }
  - { offsetInCU: 0x26E1F, offset: 0x26E1F, size: 0x8, addend: 0x0, symName: __ZNSt3__122__allocator_destructorINS_9allocatorINS_11__list_nodeIP7StudentPvEEEEEclB8ue170006EPS6_, symObjAddr: 0x9190, symBinAddr: 0x10000A3D0, symSize: 0x30 }
  - { offsetInCU: 0x26E53, offset: 0x26E53, size: 0x8, addend: 0x0, symName: __ZNSt3__122__compressed_pair_elemINS_22__allocator_destructorINS_9allocatorINS_11__list_nodeIP7StudentPvEEEEEELi1ELb0EE5__getB8ue170006Ev, symObjAddr: 0x91C0, symBinAddr: 0x10000A400, symSize: 0x10 }
  - { offsetInCU: 0x26E79, offset: 0x26E79, size: 0x8, addend: 0x0, symName: __ZNSt3__115__list_iteratorIP7StudentPvEmmB8ue170006Ev, symObjAddr: 0x91D0, symBinAddr: 0x10000A410, symSize: 0x20 }
  - { offsetInCU: 0x26E9F, offset: 0x26E9F, size: 0x8, addend: 0x0, symName: __ZNSt3__115__list_iteratorIP7StudentPvEppB8ue170006Ev, symObjAddr: 0x91F0, symBinAddr: 0x10000A430, symSize: 0x20 }
  - { offsetInCU: 0x26EC5, offset: 0x26EC5, size: 0x8, addend: 0x0, symName: __ZNSt3__16vectorI2BANS_9allocatorIS1_EEEC2B8ue170006Ev, symObjAddr: 0x9210, symBinAddr: 0x10000A450, symSize: 0x50 }
  - { offsetInCU: 0x26EF4, offset: 0x26EF4, size: 0x8, addend: 0x0, symName: __ZNSt3__117__compressed_pairIP2BANS_9allocatorIS1_EEEC1B8ue170006IDnNS_18__default_init_tagEEEOT_OT0_, symObjAddr: 0x9260, symBinAddr: 0x10000A4A0, symSize: 0x30 }
  - { offsetInCU: 0x26F4C, offset: 0x26F4C, size: 0x8, addend: 0x0, symName: __ZNSt3__117__compressed_pairIP2BANS_9allocatorIS1_EEEC2B8ue170006IDnNS_18__default_init_tagEEEOT_OT0_, symObjAddr: 0x9290, symBinAddr: 0x10000A4D0, symSize: 0x40 }
  - { offsetInCU: 0x26FA4, offset: 0x26FA4, size: 0x8, addend: 0x0, symName: __ZNSt3__122__compressed_pair_elemIP2BALi0ELb0EEC2B8ue170006IDnvEEOT_, symObjAddr: 0x92D0, symBinAddr: 0x10000A510, symSize: 0x20 }
  - { offsetInCU: 0x26FE6, offset: 0x26FE6, size: 0x8, addend: 0x0, symName: __ZNSt3__122__compressed_pair_elemINS_9allocatorI2BAEELi1ELb1EEC2B8ue170006ENS_18__default_init_tagE, symObjAddr: 0x92F0, symBinAddr: 0x10000A530, symSize: 0x20 }
  - { offsetInCU: 0x2701A, offset: 0x2701A, size: 0x8, addend: 0x0, symName: __ZNSt3__19allocatorI2BAEC2B8ue170006Ev, symObjAddr: 0x9310, symBinAddr: 0x10000A550, symSize: 0x20 }
  - { offsetInCU: 0x27044, offset: 0x27044, size: 0x8, addend: 0x0, symName: __ZNSt3__116__non_trivial_ifILb1ENS_9allocatorI2BAEEEC2B8ue170006Ev, symObjAddr: 0x9330, symBinAddr: 0x10000A570, symSize: 0x10 }
  - { offsetInCU: 0x2706E, offset: 0x2706E, size: 0x8, addend: 0x0, symName: __ZNSt3__16vectorI2BANS_9allocatorIS1_EEED2B8ue170006Ev, symObjAddr: 0x9340, symBinAddr: 0x10000A580, symSize: 0x40 }
  - { offsetInCU: 0x27098, offset: 0x27098, size: 0x8, addend: 0x0, symName: __ZNSt3__16vectorI2BANS_9allocatorIS1_EEE16__destroy_vectorC1B8ue170006ERS4_, symObjAddr: 0x9380, symBinAddr: 0x10000A5C0, symSize: 0x30 }
  - { offsetInCU: 0x270D1, offset: 0x270D1, size: 0x8, addend: 0x0, symName: __ZNSt3__16vectorI2BANS_9allocatorIS1_EEE16__destroy_vectorclB8ue170006Ev, symObjAddr: 0x93B0, symBinAddr: 0x10000A5F0, symSize: 0x80 }
  - { offsetInCU: 0x270F7, offset: 0x270F7, size: 0x8, addend: 0x0, symName: __ZNSt3__16vectorI2BANS_9allocatorIS1_EEE16__destroy_vectorC2B8ue170006ERS4_, symObjAddr: 0x9430, symBinAddr: 0x10000A670, symSize: 0x20 }
  - { offsetInCU: 0x27130, offset: 0x27130, size: 0x8, addend: 0x0, symName: __ZNSt3__16vectorI2BANS_9allocatorIS1_EEE7__clearB8ue170006Ev, symObjAddr: 0x9450, symBinAddr: 0x10000A690, symSize: 0x20 }
  - { offsetInCU: 0x27156, offset: 0x27156, size: 0x8, addend: 0x0, symName: __ZNKSt3__16vectorI2BANS_9allocatorIS1_EEE17__annotate_deleteB8ue170006Ev, symObjAddr: 0x9470, symBinAddr: 0x10000A6B0, symSize: 0xB0 }
  - { offsetInCU: 0x2717C, offset: 0x2717C, size: 0x8, addend: 0x0, symName: __ZNSt3__16vectorI2BANS_9allocatorIS1_EEE7__allocB8ue170006Ev, symObjAddr: 0x9520, symBinAddr: 0x10000A760, symSize: 0x20 }
  - { offsetInCU: 0x271A2, offset: 0x271A2, size: 0x8, addend: 0x0, symName: __ZNKSt3__16vectorI2BANS_9allocatorIS1_EEE8capacityB8ue170006Ev, symObjAddr: 0x9540, symBinAddr: 0x10000A780, symSize: 0x40 }
  - { offsetInCU: 0x271C8, offset: 0x271C8, size: 0x8, addend: 0x0, symName: __ZNSt3__16vectorI2BANS_9allocatorIS1_EEE22__base_destruct_at_endB8ue170006EPS1_, symObjAddr: 0x9580, symBinAddr: 0x10000A7C0, symSize: 0x80 }
  - { offsetInCU: 0x2720C, offset: 0x2720C, size: 0x8, addend: 0x0, symName: __ZNKSt3__16vectorI2BANS_9allocatorIS1_EEE31__annotate_contiguous_containerB8ue170006EPKvS6_S6_S6_, symObjAddr: 0x9600, symBinAddr: 0x10000A840, symSize: 0x20 }
  - { offsetInCU: 0x27262, offset: 0x27262, size: 0x8, addend: 0x0, symName: __ZNKSt3__16vectorI2BANS_9allocatorIS1_EEE4dataB8ue170006Ev, symObjAddr: 0x9620, symBinAddr: 0x10000A860, symSize: 0x20 }
  - { offsetInCU: 0x27288, offset: 0x27288, size: 0x8, addend: 0x0, symName: __ZNSt3__117__compressed_pairIP2BANS_9allocatorIS1_EEE6secondB8ue170006Ev, symObjAddr: 0x9640, symBinAddr: 0x10000A880, symSize: 0x20 }
  - { offsetInCU: 0x272AE, offset: 0x272AE, size: 0x8, addend: 0x0, symName: __ZNKSt3__16vectorI2BANS_9allocatorIS1_EEE9__end_capB8ue170006Ev, symObjAddr: 0x9660, symBinAddr: 0x10000A8A0, symSize: 0x20 }
  - { offsetInCU: 0x272D4, offset: 0x272D4, size: 0x8, addend: 0x0, symName: __ZNKSt3__117__compressed_pairIP2BANS_9allocatorIS1_EEE5firstB8ue170006Ev, symObjAddr: 0x9680, symBinAddr: 0x10000A8C0, symSize: 0x20 }
  - { offsetInCU: 0x272FA, offset: 0x272FA, size: 0x8, addend: 0x0, symName: __ZNKSt3__122__compressed_pair_elemIP2BALi0ELb0EE5__getB8ue170006Ev, symObjAddr: 0x96A0, symBinAddr: 0x10000A8E0, symSize: 0x10 }
  - { offsetInCU: 0x27320, offset: 0x27320, size: 0x8, addend: 0x0, symName: __ZNSt3__16vectorI2MANS_9allocatorIS1_EEEC2B8ue170006Ev, symObjAddr: 0x96B0, symBinAddr: 0x10000A8F0, symSize: 0x50 }
  - { offsetInCU: 0x2734A, offset: 0x2734A, size: 0x8, addend: 0x0, symName: __ZNSt3__117__compressed_pairIP2MANS_9allocatorIS1_EEEC1B8ue170006IDnNS_18__default_init_tagEEEOT_OT0_, symObjAddr: 0x9700, symBinAddr: 0x10000A940, symSize: 0x30 }
  - { offsetInCU: 0x273A2, offset: 0x273A2, size: 0x8, addend: 0x0, symName: __ZNSt3__117__compressed_pairIP2MANS_9allocatorIS1_EEEC2B8ue170006IDnNS_18__default_init_tagEEEOT_OT0_, symObjAddr: 0x9730, symBinAddr: 0x10000A970, symSize: 0x40 }
  - { offsetInCU: 0x273FA, offset: 0x273FA, size: 0x8, addend: 0x0, symName: __ZNSt3__122__compressed_pair_elemIP2MALi0ELb0EEC2B8ue170006IDnvEEOT_, symObjAddr: 0x9770, symBinAddr: 0x10000A9B0, symSize: 0x20 }
  - { offsetInCU: 0x2743C, offset: 0x2743C, size: 0x8, addend: 0x0, symName: __ZNSt3__122__compressed_pair_elemINS_9allocatorI2MAEELi1ELb1EEC2B8ue170006ENS_18__default_init_tagE, symObjAddr: 0x9790, symBinAddr: 0x10000A9D0, symSize: 0x20 }
  - { offsetInCU: 0x27470, offset: 0x27470, size: 0x8, addend: 0x0, symName: __ZNSt3__19allocatorI2MAEC2B8ue170006Ev, symObjAddr: 0x97B0, symBinAddr: 0x10000A9F0, symSize: 0x20 }
  - { offsetInCU: 0x2749A, offset: 0x2749A, size: 0x8, addend: 0x0, symName: __ZNSt3__116__non_trivial_ifILb1ENS_9allocatorI2MAEEEC2B8ue170006Ev, symObjAddr: 0x97D0, symBinAddr: 0x10000AA10, symSize: 0x10 }
  - { offsetInCU: 0x274C4, offset: 0x274C4, size: 0x8, addend: 0x0, symName: __ZNSt3__16vectorI2MANS_9allocatorIS1_EEED2B8ue170006Ev, symObjAddr: 0x97E0, symBinAddr: 0x10000AA20, symSize: 0x40 }
  - { offsetInCU: 0x274EE, offset: 0x274EE, size: 0x8, addend: 0x0, symName: __ZNSt3__16vectorI2MANS_9allocatorIS1_EEE16__destroy_vectorC1B8ue170006ERS4_, symObjAddr: 0x9820, symBinAddr: 0x10000AA60, symSize: 0x30 }
  - { offsetInCU: 0x27527, offset: 0x27527, size: 0x8, addend: 0x0, symName: __ZNSt3__16vectorI2MANS_9allocatorIS1_EEE16__destroy_vectorclB8ue170006Ev, symObjAddr: 0x9850, symBinAddr: 0x10000AA90, symSize: 0x80 }
  - { offsetInCU: 0x2754D, offset: 0x2754D, size: 0x8, addend: 0x0, symName: __ZNSt3__16vectorI2MANS_9allocatorIS1_EEE16__destroy_vectorC2B8ue170006ERS4_, symObjAddr: 0x98D0, symBinAddr: 0x10000AB10, symSize: 0x20 }
  - { offsetInCU: 0x27586, offset: 0x27586, size: 0x8, addend: 0x0, symName: __ZNSt3__16vectorI2MANS_9allocatorIS1_EEE7__clearB8ue170006Ev, symObjAddr: 0x98F0, symBinAddr: 0x10000AB30, symSize: 0x20 }
  - { offsetInCU: 0x275AC, offset: 0x275AC, size: 0x8, addend: 0x0, symName: __ZNKSt3__16vectorI2MANS_9allocatorIS1_EEE17__annotate_deleteB8ue170006Ev, symObjAddr: 0x9910, symBinAddr: 0x10000AB50, symSize: 0xB0 }
  - { offsetInCU: 0x275D2, offset: 0x275D2, size: 0x8, addend: 0x0, symName: __ZNSt3__16vectorI2MANS_9allocatorIS1_EEE7__allocB8ue170006Ev, symObjAddr: 0x99C0, symBinAddr: 0x10000AC00, symSize: 0x20 }
  - { offsetInCU: 0x275F8, offset: 0x275F8, size: 0x8, addend: 0x0, symName: __ZNKSt3__16vectorI2MANS_9allocatorIS1_EEE8capacityB8ue170006Ev, symObjAddr: 0x99E0, symBinAddr: 0x10000AC20, symSize: 0x40 }
  - { offsetInCU: 0x2761E, offset: 0x2761E, size: 0x8, addend: 0x0, symName: __ZNSt3__16vectorI2MANS_9allocatorIS1_EEE22__base_destruct_at_endB8ue170006EPS1_, symObjAddr: 0x9A20, symBinAddr: 0x10000AC60, symSize: 0x80 }
  - { offsetInCU: 0x27662, offset: 0x27662, size: 0x8, addend: 0x0, symName: __ZNKSt3__16vectorI2MANS_9allocatorIS1_EEE31__annotate_contiguous_containerB8ue170006EPKvS6_S6_S6_, symObjAddr: 0x9AA0, symBinAddr: 0x10000ACE0, symSize: 0x20 }
  - { offsetInCU: 0x276B8, offset: 0x276B8, size: 0x8, addend: 0x0, symName: __ZNKSt3__16vectorI2MANS_9allocatorIS1_EEE4dataB8ue170006Ev, symObjAddr: 0x9AC0, symBinAddr: 0x10000AD00, symSize: 0x20 }
  - { offsetInCU: 0x276DE, offset: 0x276DE, size: 0x8, addend: 0x0, symName: __ZNSt3__117__compressed_pairIP2MANS_9allocatorIS1_EEE6secondB8ue170006Ev, symObjAddr: 0x9AE0, symBinAddr: 0x10000AD20, symSize: 0x20 }
  - { offsetInCU: 0x27704, offset: 0x27704, size: 0x8, addend: 0x0, symName: __ZNKSt3__16vectorI2MANS_9allocatorIS1_EEE9__end_capB8ue170006Ev, symObjAddr: 0x9B00, symBinAddr: 0x10000AD40, symSize: 0x20 }
  - { offsetInCU: 0x2772A, offset: 0x2772A, size: 0x8, addend: 0x0, symName: __ZNKSt3__117__compressed_pairIP2MANS_9allocatorIS1_EEE5firstB8ue170006Ev, symObjAddr: 0x9B20, symBinAddr: 0x10000AD60, symSize: 0x20 }
  - { offsetInCU: 0x27750, offset: 0x27750, size: 0x8, addend: 0x0, symName: __ZNKSt3__122__compressed_pair_elemIP2MALi0ELb0EE5__getB8ue170006Ev, symObjAddr: 0x9B40, symBinAddr: 0x10000AD80, symSize: 0x10 }
  - { offsetInCU: 0x27776, offset: 0x27776, size: 0x8, addend: 0x0, symName: __ZNSt3__16vectorI3PHDNS_9allocatorIS1_EEEC2B8ue170006Ev, symObjAddr: 0x9B50, symBinAddr: 0x10000AD90, symSize: 0x50 }
  - { offsetInCU: 0x277A0, offset: 0x277A0, size: 0x8, addend: 0x0, symName: __ZNSt3__117__compressed_pairIP3PHDNS_9allocatorIS1_EEEC1B8ue170006IDnNS_18__default_init_tagEEEOT_OT0_, symObjAddr: 0x9BA0, symBinAddr: 0x10000ADE0, symSize: 0x30 }
  - { offsetInCU: 0x277F8, offset: 0x277F8, size: 0x8, addend: 0x0, symName: __ZNSt3__117__compressed_pairIP3PHDNS_9allocatorIS1_EEEC2B8ue170006IDnNS_18__default_init_tagEEEOT_OT0_, symObjAddr: 0x9BD0, symBinAddr: 0x10000AE10, symSize: 0x40 }
  - { offsetInCU: 0x27850, offset: 0x27850, size: 0x8, addend: 0x0, symName: __ZNSt3__122__compressed_pair_elemIP3PHDLi0ELb0EEC2B8ue170006IDnvEEOT_, symObjAddr: 0x9C10, symBinAddr: 0x10000AE50, symSize: 0x20 }
  - { offsetInCU: 0x27892, offset: 0x27892, size: 0x8, addend: 0x0, symName: __ZNSt3__122__compressed_pair_elemINS_9allocatorI3PHDEELi1ELb1EEC2B8ue170006ENS_18__default_init_tagE, symObjAddr: 0x9C30, symBinAddr: 0x10000AE70, symSize: 0x20 }
  - { offsetInCU: 0x278C6, offset: 0x278C6, size: 0x8, addend: 0x0, symName: __ZNSt3__19allocatorI3PHDEC2B8ue170006Ev, symObjAddr: 0x9C50, symBinAddr: 0x10000AE90, symSize: 0x20 }
  - { offsetInCU: 0x278F0, offset: 0x278F0, size: 0x8, addend: 0x0, symName: __ZNSt3__116__non_trivial_ifILb1ENS_9allocatorI3PHDEEEC2B8ue170006Ev, symObjAddr: 0x9C70, symBinAddr: 0x10000AEB0, symSize: 0x10 }
  - { offsetInCU: 0x2791A, offset: 0x2791A, size: 0x8, addend: 0x0, symName: __ZNSt3__16vectorI3PHDNS_9allocatorIS1_EEED2B8ue170006Ev, symObjAddr: 0x9C80, symBinAddr: 0x10000AEC0, symSize: 0x40 }
  - { offsetInCU: 0x27944, offset: 0x27944, size: 0x8, addend: 0x0, symName: __ZNSt3__16vectorI3PHDNS_9allocatorIS1_EEE16__destroy_vectorC1B8ue170006ERS4_, symObjAddr: 0x9CC0, symBinAddr: 0x10000AF00, symSize: 0x30 }
  - { offsetInCU: 0x2797D, offset: 0x2797D, size: 0x8, addend: 0x0, symName: __ZNSt3__16vectorI3PHDNS_9allocatorIS1_EEE16__destroy_vectorclB8ue170006Ev, symObjAddr: 0x9CF0, symBinAddr: 0x10000AF30, symSize: 0x80 }
  - { offsetInCU: 0x279A3, offset: 0x279A3, size: 0x8, addend: 0x0, symName: __ZNSt3__16vectorI3PHDNS_9allocatorIS1_EEE16__destroy_vectorC2B8ue170006ERS4_, symObjAddr: 0x9D70, symBinAddr: 0x10000AFB0, symSize: 0x20 }
  - { offsetInCU: 0x279DC, offset: 0x279DC, size: 0x8, addend: 0x0, symName: __ZNSt3__16vectorI3PHDNS_9allocatorIS1_EEE7__clearB8ue170006Ev, symObjAddr: 0x9D90, symBinAddr: 0x10000AFD0, symSize: 0x20 }
  - { offsetInCU: 0x27A02, offset: 0x27A02, size: 0x8, addend: 0x0, symName: __ZNKSt3__16vectorI3PHDNS_9allocatorIS1_EEE17__annotate_deleteB8ue170006Ev, symObjAddr: 0x9DB0, symBinAddr: 0x10000AFF0, symSize: 0xB0 }
  - { offsetInCU: 0x27A28, offset: 0x27A28, size: 0x8, addend: 0x0, symName: __ZNSt3__16vectorI3PHDNS_9allocatorIS1_EEE7__allocB8ue170006Ev, symObjAddr: 0x9E60, symBinAddr: 0x10000B0A0, symSize: 0x20 }
  - { offsetInCU: 0x27A4E, offset: 0x27A4E, size: 0x8, addend: 0x0, symName: __ZNKSt3__16vectorI3PHDNS_9allocatorIS1_EEE8capacityB8ue170006Ev, symObjAddr: 0x9E80, symBinAddr: 0x10000B0C0, symSize: 0x40 }
  - { offsetInCU: 0x27A74, offset: 0x27A74, size: 0x8, addend: 0x0, symName: __ZNSt3__16vectorI3PHDNS_9allocatorIS1_EEE22__base_destruct_at_endB8ue170006EPS1_, symObjAddr: 0x9EC0, symBinAddr: 0x10000B100, symSize: 0x80 }
  - { offsetInCU: 0x27AB8, offset: 0x27AB8, size: 0x8, addend: 0x0, symName: __ZNKSt3__16vectorI3PHDNS_9allocatorIS1_EEE31__annotate_contiguous_containerB8ue170006EPKvS6_S6_S6_, symObjAddr: 0x9F40, symBinAddr: 0x10000B180, symSize: 0x20 }
  - { offsetInCU: 0x27B0E, offset: 0x27B0E, size: 0x8, addend: 0x0, symName: __ZNKSt3__16vectorI3PHDNS_9allocatorIS1_EEE4dataB8ue170006Ev, symObjAddr: 0x9F60, symBinAddr: 0x10000B1A0, symSize: 0x20 }
  - { offsetInCU: 0x27B34, offset: 0x27B34, size: 0x8, addend: 0x0, symName: __ZNSt3__117__compressed_pairIP3PHDNS_9allocatorIS1_EEE6secondB8ue170006Ev, symObjAddr: 0x9F80, symBinAddr: 0x10000B1C0, symSize: 0x20 }
  - { offsetInCU: 0x27B5A, offset: 0x27B5A, size: 0x8, addend: 0x0, symName: __ZNKSt3__16vectorI3PHDNS_9allocatorIS1_EEE9__end_capB8ue170006Ev, symObjAddr: 0x9FA0, symBinAddr: 0x10000B1E0, symSize: 0x20 }
  - { offsetInCU: 0x27B80, offset: 0x27B80, size: 0x8, addend: 0x0, symName: __ZNKSt3__117__compressed_pairIP3PHDNS_9allocatorIS1_EEE5firstB8ue170006Ev, symObjAddr: 0x9FC0, symBinAddr: 0x10000B200, symSize: 0x20 }
  - { offsetInCU: 0x27BA6, offset: 0x27BA6, size: 0x8, addend: 0x0, symName: __ZNKSt3__122__compressed_pair_elemIP3PHDLi0ELb0EE5__getB8ue170006Ev, symObjAddr: 0x9FE0, symBinAddr: 0x10000B220, symSize: 0x10 }
  - { offsetInCU: 0x27BCC, offset: 0x27BCC, size: 0x8, addend: 0x0, symName: __ZNSt3__16vectorI2BANS_9allocatorIS1_EEE9__end_capB8ue170006Ev, symObjAddr: 0x9FF0, symBinAddr: 0x10000B230, symSize: 0x20 }
  - { offsetInCU: 0x27BF2, offset: 0x27BF2, size: 0x8, addend: 0x0, symName: __ZNSt3__16vectorI2BANS_9allocatorIS1_EEE22__construct_one_at_endB8ue170006IJRKS1_EEEvDpOT_, symObjAddr: 0xA010, symBinAddr: 0x10000B250, symSize: 0x90 }
  - { offsetInCU: 0x27C41, offset: 0x27C41, size: 0x8, addend: 0x0, symName: __ZNSt3__16vectorI2BANS_9allocatorIS1_EEE21__push_back_slow_pathIRKS1_EEvOT_, symObjAddr: 0xA0A0, symBinAddr: 0x10000B2E0, symSize: 0xD0 }
  - { offsetInCU: 0x27C9F, offset: 0x27C9F, size: 0x8, addend: 0x0, symName: __ZNSt3__117__compressed_pairIP2BANS_9allocatorIS1_EEE5firstB8ue170006Ev, symObjAddr: 0xA170, symBinAddr: 0x10000B3B0, symSize: 0x20 }
  - { offsetInCU: 0x27CC5, offset: 0x27CC5, size: 0x8, addend: 0x0, symName: __ZNSt3__122__compressed_pair_elemIP2BALi0ELb0EE5__getB8ue170006Ev, symObjAddr: 0xA190, symBinAddr: 0x10000B3D0, symSize: 0x10 }
  - { offsetInCU: 0x27D04, offset: 0x27D04, size: 0x8, addend: 0x0, symName: __ZNSt3__16vectorI2BANS_9allocatorIS1_EEE21_ConstructTransactionC1B8ue170006ERS4_m, symObjAddr: 0xA1A0, symBinAddr: 0x10000B3E0, symSize: 0x30 }
  - { offsetInCU: 0x27D4C, offset: 0x27D4C, size: 0x8, addend: 0x0, symName: __ZNSt3__116allocator_traitsINS_9allocatorI2BAEEE9constructB8ue170006IS2_JRKS2_EvEEvRS3_PT_DpOT0_, symObjAddr: 0xA1D0, symBinAddr: 0x10000B410, symSize: 0x30 }
  - { offsetInCU: 0x27DA3, offset: 0x27DA3, size: 0x8, addend: 0x0, symName: __ZNSt3__16vectorI2BANS_9allocatorIS1_EEE21_ConstructTransactionD1B8ue170006Ev, symObjAddr: 0xA200, symBinAddr: 0x10000B440, symSize: 0x20 }
  - { offsetInCU: 0x27DCD, offset: 0x27DCD, size: 0x8, addend: 0x0, symName: __ZNSt3__16vectorI2BANS_9allocatorIS1_EEE21_ConstructTransactionC2B8ue170006ERS4_m, symObjAddr: 0xA220, symBinAddr: 0x10000B460, symSize: 0x40 }
  - { offsetInCU: 0x27E15, offset: 0x27E15, size: 0x8, addend: 0x0, symName: __ZNSt3__19allocatorI2BAE9constructB8ue170006IS1_JRKS1_EEEvPT_DpOT0_, symObjAddr: 0xA260, symBinAddr: 0x10000B4A0, symSize: 0x30 }
  - { offsetInCU: 0x27E6B, offset: 0x27E6B, size: 0x8, addend: 0x0, symName: __ZNSt3__16vectorI2BANS_9allocatorIS1_EEE21_ConstructTransactionD2B8ue170006Ev, symObjAddr: 0xA290, symBinAddr: 0x10000B4D0, symSize: 0x20 }
  - { offsetInCU: 0x27E95, offset: 0x27E95, size: 0x8, addend: 0x0, symName: __ZNKSt3__16vectorI2BANS_9allocatorIS1_EEE11__recommendB8ue170006Em, symObjAddr: 0xA2B0, symBinAddr: 0x10000B4F0, symSize: 0xA0 }
  - { offsetInCU: 0x27EEA, offset: 0x27EEA, size: 0x8, addend: 0x0, symName: __ZNSt3__114__split_bufferI2BARNS_9allocatorIS1_EEEC1EmmS4_, symObjAddr: 0xA350, symBinAddr: 0x10000B590, symSize: 0x40 }
  - { offsetInCU: 0x27F40, offset: 0x27F40, size: 0x8, addend: 0x0, symName: __ZNSt3__114__split_bufferI2BARNS_9allocatorIS1_EEED1Ev, symObjAddr: 0xA4B0, symBinAddr: 0x10000B6F0, symSize: 0x20 }
  - { offsetInCU: 0x27F6C, offset: 0x27F6C, size: 0x8, addend: 0x0, symName: __ZNKSt3__16vectorI2BANS_9allocatorIS1_EEE8max_sizeEv, symObjAddr: 0xA4D0, symBinAddr: 0x10000B710, symSize: 0x60 }
  - { offsetInCU: 0x27F94, offset: 0x27F94, size: 0x8, addend: 0x0, symName: __ZNKSt3__16vectorI2BANS_9allocatorIS1_EEE20__throw_length_errorB8ue170006Ev, symObjAddr: 0xA530, symBinAddr: 0x10000B770, symSize: 0x20 }
  - { offsetInCU: 0x27FC4, offset: 0x27FC4, size: 0x8, addend: 0x0, symName: __ZNSt3__116allocator_traitsINS_9allocatorI2BAEEE8max_sizeB8ue170006IS3_vEEmRKS3_, symObjAddr: 0xA5B0, symBinAddr: 0x10000B7F0, symSize: 0x20 }
  - { offsetInCU: 0x27FF2, offset: 0x27FF2, size: 0x8, addend: 0x0, symName: __ZNKSt3__16vectorI2BANS_9allocatorIS1_EEE7__allocB8ue170006Ev, symObjAddr: 0xA5D0, symBinAddr: 0x10000B810, symSize: 0x20 }
  - { offsetInCU: 0x28022, offset: 0x28022, size: 0x8, addend: 0x0, symName: __ZNKSt3__16__lessIvvEclB8ue170006ImmEEbRKT_RKT0_, symObjAddr: 0xA640, symBinAddr: 0x10000B880, symSize: 0x30 }
  - { offsetInCU: 0x28076, offset: 0x28076, size: 0x8, addend: 0x0, symName: __ZNKSt3__19allocatorI2BAE8max_sizeB8ue170006Ev, symObjAddr: 0xA670, symBinAddr: 0x10000B8B0, symSize: 0x20 }
  - { offsetInCU: 0x2809C, offset: 0x2809C, size: 0x8, addend: 0x0, symName: __ZNKSt3__117__compressed_pairIP2BANS_9allocatorIS1_EEE6secondB8ue170006Ev, symObjAddr: 0xA690, symBinAddr: 0x10000B8D0, symSize: 0x20 }
  - { offsetInCU: 0x280C2, offset: 0x280C2, size: 0x8, addend: 0x0, symName: __ZNKSt3__122__compressed_pair_elemINS_9allocatorI2BAEELi1ELb1EE5__getB8ue170006Ev, symObjAddr: 0xA6B0, symBinAddr: 0x10000B8F0, symSize: 0x10 }
  - { offsetInCU: 0x280E8, offset: 0x280E8, size: 0x8, addend: 0x0, symName: __ZNSt12length_errorC1B8ue170006EPKc, symObjAddr: 0xA730, symBinAddr: 0x10000B970, symSize: 0x30 }
  - { offsetInCU: 0x28120, offset: 0x28120, size: 0x8, addend: 0x0, symName: __ZNSt12length_errorC2B8ue170006EPKc, symObjAddr: 0xA760, symBinAddr: 0x10000B9A0, symSize: 0x40 }
  - { offsetInCU: 0x28158, offset: 0x28158, size: 0x8, addend: 0x0, symName: __ZNSt3__114__split_bufferI2BARNS_9allocatorIS1_EEEC2EmmS4_, symObjAddr: 0xA7F0, symBinAddr: 0x10000BA30, symSize: 0xC0 }
  - { offsetInCU: 0x281CB, offset: 0x281CB, size: 0x8, addend: 0x0, symName: __ZNSt3__117__compressed_pairIP2BARNS_9allocatorIS1_EEEC1B8ue170006IDnS5_EEOT_OT0_, symObjAddr: 0xA8B0, symBinAddr: 0x10000BAF0, symSize: 0x30 }
  - { offsetInCU: 0x28223, offset: 0x28223, size: 0x8, addend: 0x0, symName: __ZNSt3__114__split_bufferI2BARNS_9allocatorIS1_EEE7__allocB8ue170006Ev, symObjAddr: 0xA920, symBinAddr: 0x10000BB60, symSize: 0x20 }
  - { offsetInCU: 0x28249, offset: 0x28249, size: 0x8, addend: 0x0, symName: __ZNSt3__114__split_bufferI2BARNS_9allocatorIS1_EEE9__end_capB8ue170006Ev, symObjAddr: 0xA940, symBinAddr: 0x10000BB80, symSize: 0x20 }
  - { offsetInCU: 0x2826F, offset: 0x2826F, size: 0x8, addend: 0x0, symName: __ZNSt3__117__compressed_pairIP2BARNS_9allocatorIS1_EEEC2B8ue170006IDnS5_EEOT_OT0_, symObjAddr: 0xA960, symBinAddr: 0x10000BBA0, symSize: 0x40 }
  - { offsetInCU: 0x282C7, offset: 0x282C7, size: 0x8, addend: 0x0, symName: __ZNSt3__122__compressed_pair_elemIRNS_9allocatorI2BAEELi1ELb0EEC2B8ue170006IS4_vEEOT_, symObjAddr: 0xA9A0, symBinAddr: 0x10000BBE0, symSize: 0x20 }
  - { offsetInCU: 0x28309, offset: 0x28309, size: 0x8, addend: 0x0, symName: __ZNSt3__19allocatorI2BAE8allocateB8ue170006Em, symObjAddr: 0xA9C0, symBinAddr: 0x10000BC00, symSize: 0x50 }
  - { offsetInCU: 0x2833D, offset: 0x2833D, size: 0x8, addend: 0x0, symName: __ZNSt3__117__compressed_pairIP2BARNS_9allocatorIS1_EEE6secondB8ue170006Ev, symObjAddr: 0xAA10, symBinAddr: 0x10000BC50, symSize: 0x20 }
  - { offsetInCU: 0x28363, offset: 0x28363, size: 0x8, addend: 0x0, symName: __ZNSt3__122__compressed_pair_elemIRNS_9allocatorI2BAEELi1ELb0EE5__getB8ue170006Ev, symObjAddr: 0xAA30, symBinAddr: 0x10000BC70, symSize: 0x20 }
  - { offsetInCU: 0x28389, offset: 0x28389, size: 0x8, addend: 0x0, symName: __ZNSt3__117__compressed_pairIP2BARNS_9allocatorIS1_EEE5firstB8ue170006Ev, symObjAddr: 0xAA50, symBinAddr: 0x10000BC90, symSize: 0x20 }
  - { offsetInCU: 0x283AF, offset: 0x283AF, size: 0x8, addend: 0x0, symName: __ZNSt3__116reverse_iteratorIP2BAEC1B8ue170006ES2_, symObjAddr: 0xABF0, symBinAddr: 0x10000BE30, symSize: 0x30 }
  - { offsetInCU: 0x283E7, offset: 0x283E7, size: 0x8, addend: 0x0, symName: __ZNKSt3__116reverse_iteratorIP2BAE4baseB8ue170006Ev, symObjAddr: 0xAC20, symBinAddr: 0x10000BE60, symSize: 0x20 }
  - { offsetInCU: 0x2840D, offset: 0x2840D, size: 0x8, addend: 0x0, symName: __ZNKSt3__16vectorI2BANS_9allocatorIS1_EEE14__annotate_newB8ue170006Em, symObjAddr: 0xAC80, symBinAddr: 0x10000BEC0, symSize: 0xA0 }
  - { offsetInCU: 0x28442, offset: 0x28442, size: 0x8, addend: 0x0, symName: __ZNSt3__129_AllocatorDestroyRangeReverseINS_9allocatorI2BAEENS_16reverse_iteratorIPS2_EEEC1B8ue170006ERS3_RS6_S9_, symObjAddr: 0xAD80, symBinAddr: 0x10000BFC0, symSize: 0x40 }
  - { offsetInCU: 0x28499, offset: 0x28499, size: 0x8, addend: 0x0, symName: __ZNKSt3__116reverse_iteratorIP2BAEdeB8ue170006Ev, symObjAddr: 0xAE20, symBinAddr: 0x10000C060, symSize: 0x30 }
  - { offsetInCU: 0x284CD, offset: 0x284CD, size: 0x8, addend: 0x0, symName: __ZNSt3__116reverse_iteratorIP2BAEppB8ue170006Ev, symObjAddr: 0xAE50, symBinAddr: 0x10000C090, symSize: 0x20 }
  - { offsetInCU: 0x284F3, offset: 0x284F3, size: 0x8, addend: 0x0, symName: __ZNSt3__128__exception_guard_exceptionsINS_29_AllocatorDestroyRangeReverseINS_9allocatorI2BAEENS_16reverse_iteratorIPS3_EEEEE10__completeB8ue170006Ev, symObjAddr: 0xAE70, symBinAddr: 0x10000C0B0, symSize: 0x20 }
  - { offsetInCU: 0x28519, offset: 0x28519, size: 0x8, addend: 0x0, symName: __ZNSt3__128__exception_guard_exceptionsINS_29_AllocatorDestroyRangeReverseINS_9allocatorI2BAEENS_16reverse_iteratorIPS3_EEEEED1B8ue170006Ev, symObjAddr: 0xAE90, symBinAddr: 0x10000C0D0, symSize: 0x20 }
  - { offsetInCU: 0x28543, offset: 0x28543, size: 0x8, addend: 0x0, symName: __ZNSt3__128__exception_guard_exceptionsINS_29_AllocatorDestroyRangeReverseINS_9allocatorI2BAEENS_16reverse_iteratorIPS3_EEEEEC1B8ue170006ES8_, symObjAddr: 0xAEB0, symBinAddr: 0x10000C0F0, symSize: 0x40 }
  - { offsetInCU: 0x2857B, offset: 0x2857B, size: 0x8, addend: 0x0, symName: __ZNSt3__128__exception_guard_exceptionsINS_29_AllocatorDestroyRangeReverseINS_9allocatorI2BAEENS_16reverse_iteratorIPS3_EEEEEC2B8ue170006ES8_, symObjAddr: 0xAEF0, symBinAddr: 0x10000C130, symSize: 0x30 }
  - { offsetInCU: 0x285B3, offset: 0x285B3, size: 0x8, addend: 0x0, symName: __ZNSt3__129_AllocatorDestroyRangeReverseINS_9allocatorI2BAEENS_16reverse_iteratorIPS2_EEEC2B8ue170006ERS3_RS6_S9_, symObjAddr: 0xAF20, symBinAddr: 0x10000C160, symSize: 0x40 }
  - { offsetInCU: 0x2860F, offset: 0x2860F, size: 0x8, addend: 0x0, symName: __ZNSt3__119__to_address_helperINS_16reverse_iteratorIP2BAEEvE6__callB8ue170006ERKS4_, symObjAddr: 0xAF60, symBinAddr: 0x10000C1A0, symSize: 0x40 }
  - { offsetInCU: 0x28632, offset: 0x28632, size: 0x8, addend: 0x0, symName: __ZNKSt3__116reverse_iteratorIP2BAEptB8ue170006Ev, symObjAddr: 0xAFA0, symBinAddr: 0x10000C1E0, symSize: 0x20 }
  - { offsetInCU: 0x28658, offset: 0x28658, size: 0x8, addend: 0x0, symName: __ZNSt3__128__exception_guard_exceptionsINS_29_AllocatorDestroyRangeReverseINS_9allocatorI2BAEENS_16reverse_iteratorIPS3_EEEEED2B8ue170006Ev, symObjAddr: 0xAFC0, symBinAddr: 0x10000C200, symSize: 0x40 }
  - { offsetInCU: 0x28682, offset: 0x28682, size: 0x8, addend: 0x0, symName: __ZNKSt3__129_AllocatorDestroyRangeReverseINS_9allocatorI2BAEENS_16reverse_iteratorIPS2_EEEclB8ue170006Ev, symObjAddr: 0xB000, symBinAddr: 0x10000C240, symSize: 0xF0 }
  - { offsetInCU: 0x286A9, offset: 0x286A9, size: 0x8, addend: 0x0, symName: __ZNSt3__116reverse_iteratorINS0_IP2BAEEEC1B8ue170006ES3_, symObjAddr: 0xB160, symBinAddr: 0x10000C3A0, symSize: 0x30 }
  - { offsetInCU: 0x286E1, offset: 0x286E1, size: 0x8, addend: 0x0, symName: __ZNSt3__116reverse_iteratorINS0_IP2BAEEEppB8ue170006Ev, symObjAddr: 0xB200, symBinAddr: 0x10000C440, symSize: 0x30 }
  - { offsetInCU: 0x28707, offset: 0x28707, size: 0x8, addend: 0x0, symName: __ZNKSt3__116reverse_iteratorINS0_IP2BAEEE4baseB8ue170006Ev, symObjAddr: 0xB230, symBinAddr: 0x10000C470, symSize: 0x20 }
  - { offsetInCU: 0x28732, offset: 0x28732, size: 0x8, addend: 0x0, symName: __ZNSt3__119__to_address_helperINS_16reverse_iteratorINS1_IP2BAEEEEvE6__callB8ue170006ERKS5_, symObjAddr: 0xB250, symBinAddr: 0x10000C490, symSize: 0x40 }
  - { offsetInCU: 0x28755, offset: 0x28755, size: 0x8, addend: 0x0, symName: __ZNKSt3__116reverse_iteratorINS0_IP2BAEEEptB8ue170006Ev, symObjAddr: 0xB290, symBinAddr: 0x10000C4D0, symSize: 0x20 }
  - { offsetInCU: 0x2877B, offset: 0x2877B, size: 0x8, addend: 0x0, symName: __ZNKSt3__116reverse_iteratorINS0_IP2BAEEEdeB8ue170006Ev, symObjAddr: 0xB2B0, symBinAddr: 0x10000C4F0, symSize: 0x40 }
  - { offsetInCU: 0x287AF, offset: 0x287AF, size: 0x8, addend: 0x0, symName: __ZNSt3__116reverse_iteratorIP2BAEmmB8ue170006Ev, symObjAddr: 0xB2F0, symBinAddr: 0x10000C530, symSize: 0x20 }
  - { offsetInCU: 0x287D5, offset: 0x287D5, size: 0x8, addend: 0x0, symName: __ZNSt3__116reverse_iteratorINS0_IP2BAEEEC2B8ue170006ES3_, symObjAddr: 0xB310, symBinAddr: 0x10000C550, symSize: 0x40 }
  - { offsetInCU: 0x2880D, offset: 0x2880D, size: 0x8, addend: 0x0, symName: __ZNSt3__116reverse_iteratorIP2BAEC2B8ue170006ES2_, symObjAddr: 0xB350, symBinAddr: 0x10000C590, symSize: 0x30 }
  - { offsetInCU: 0x28845, offset: 0x28845, size: 0x8, addend: 0x0, symName: __ZNSt3__114__split_bufferI2BARNS_9allocatorIS1_EEED2Ev, symObjAddr: 0xB380, symBinAddr: 0x10000C5C0, symSize: 0x70 }
  - { offsetInCU: 0x28871, offset: 0x28871, size: 0x8, addend: 0x0, symName: __ZNSt3__114__split_bufferI2BARNS_9allocatorIS1_EEE5clearB8ue170006Ev, symObjAddr: 0xB3F0, symBinAddr: 0x10000C630, symSize: 0x20 }
  - { offsetInCU: 0x28897, offset: 0x28897, size: 0x8, addend: 0x0, symName: __ZNKSt3__114__split_bufferI2BARNS_9allocatorIS1_EEE8capacityB8ue170006Ev, symObjAddr: 0xB410, symBinAddr: 0x10000C650, symSize: 0x40 }
  - { offsetInCU: 0x288BD, offset: 0x288BD, size: 0x8, addend: 0x0, symName: __ZNSt3__114__split_bufferI2BARNS_9allocatorIS1_EEE17__destruct_at_endB8ue170006EPS1_, symObjAddr: 0xB450, symBinAddr: 0x10000C690, symSize: 0x30 }
  - { offsetInCU: 0x288F1, offset: 0x288F1, size: 0x8, addend: 0x0, symName: __ZNSt3__114__split_bufferI2BARNS_9allocatorIS1_EEE17__destruct_at_endB8ue170006EPS1_NS_17integral_constantIbLb0EEE, symObjAddr: 0xB480, symBinAddr: 0x10000C6C0, symSize: 0x80 }
  - { offsetInCU: 0x28931, offset: 0x28931, size: 0x8, addend: 0x0, symName: __ZNKSt3__114__split_bufferI2BARNS_9allocatorIS1_EEE9__end_capB8ue170006Ev, symObjAddr: 0xB500, symBinAddr: 0x10000C740, symSize: 0x20 }
  - { offsetInCU: 0x28957, offset: 0x28957, size: 0x8, addend: 0x0, symName: __ZNKSt3__117__compressed_pairIP2BARNS_9allocatorIS1_EEE5firstB8ue170006Ev, symObjAddr: 0xB520, symBinAddr: 0x10000C760, symSize: 0x20 }
  - { offsetInCU: 0x2897D, offset: 0x2897D, size: 0x8, addend: 0x0, symName: __ZNSt3__16vectorI2MANS_9allocatorIS1_EEE9__end_capB8ue170006Ev, symObjAddr: 0xB540, symBinAddr: 0x10000C780, symSize: 0x20 }
  - { offsetInCU: 0x289A3, offset: 0x289A3, size: 0x8, addend: 0x0, symName: __ZNSt3__16vectorI2MANS_9allocatorIS1_EEE22__construct_one_at_endB8ue170006IJRKS1_EEEvDpOT_, symObjAddr: 0xB560, symBinAddr: 0x10000C7A0, symSize: 0x90 }
  - { offsetInCU: 0x289F2, offset: 0x289F2, size: 0x8, addend: 0x0, symName: __ZNSt3__16vectorI2MANS_9allocatorIS1_EEE21__push_back_slow_pathIRKS1_EEvOT_, symObjAddr: 0xB5F0, symBinAddr: 0x10000C830, symSize: 0xD0 }
  - { offsetInCU: 0x28A50, offset: 0x28A50, size: 0x8, addend: 0x0, symName: __ZNSt3__117__compressed_pairIP2MANS_9allocatorIS1_EEE5firstB8ue170006Ev, symObjAddr: 0xB6C0, symBinAddr: 0x10000C900, symSize: 0x20 }
  - { offsetInCU: 0x28A76, offset: 0x28A76, size: 0x8, addend: 0x0, symName: __ZNSt3__122__compressed_pair_elemIP2MALi0ELb0EE5__getB8ue170006Ev, symObjAddr: 0xB6E0, symBinAddr: 0x10000C920, symSize: 0x10 }
  - { offsetInCU: 0x28AB5, offset: 0x28AB5, size: 0x8, addend: 0x0, symName: __ZNSt3__16vectorI2MANS_9allocatorIS1_EEE21_ConstructTransactionC1B8ue170006ERS4_m, symObjAddr: 0xB6F0, symBinAddr: 0x10000C930, symSize: 0x30 }
  - { offsetInCU: 0x28AFD, offset: 0x28AFD, size: 0x8, addend: 0x0, symName: __ZNSt3__116allocator_traitsINS_9allocatorI2MAEEE9constructB8ue170006IS2_JRKS2_EvEEvRS3_PT_DpOT0_, symObjAddr: 0xB720, symBinAddr: 0x10000C960, symSize: 0x30 }
  - { offsetInCU: 0x28B54, offset: 0x28B54, size: 0x8, addend: 0x0, symName: __ZNSt3__16vectorI2MANS_9allocatorIS1_EEE21_ConstructTransactionD1B8ue170006Ev, symObjAddr: 0xB750, symBinAddr: 0x10000C990, symSize: 0x20 }
  - { offsetInCU: 0x28B7E, offset: 0x28B7E, size: 0x8, addend: 0x0, symName: __ZNSt3__16vectorI2MANS_9allocatorIS1_EEE21_ConstructTransactionC2B8ue170006ERS4_m, symObjAddr: 0xB770, symBinAddr: 0x10000C9B0, symSize: 0x40 }
  - { offsetInCU: 0x28BC6, offset: 0x28BC6, size: 0x8, addend: 0x0, symName: __ZNSt3__19allocatorI2MAE9constructB8ue170006IS1_JRKS1_EEEvPT_DpOT0_, symObjAddr: 0xB7B0, symBinAddr: 0x10000C9F0, symSize: 0x30 }
  - { offsetInCU: 0x28C1C, offset: 0x28C1C, size: 0x8, addend: 0x0, symName: __ZNSt3__16vectorI2MANS_9allocatorIS1_EEE21_ConstructTransactionD2B8ue170006Ev, symObjAddr: 0xB7E0, symBinAddr: 0x10000CA20, symSize: 0x20 }
  - { offsetInCU: 0x28C46, offset: 0x28C46, size: 0x8, addend: 0x0, symName: __ZNKSt3__16vectorI2MANS_9allocatorIS1_EEE11__recommendB8ue170006Em, symObjAddr: 0xB800, symBinAddr: 0x10000CA40, symSize: 0xA0 }
  - { offsetInCU: 0x28C9B, offset: 0x28C9B, size: 0x8, addend: 0x0, symName: __ZNSt3__114__split_bufferI2MARNS_9allocatorIS1_EEEC1EmmS4_, symObjAddr: 0xB8A0, symBinAddr: 0x10000CAE0, symSize: 0x40 }
  - { offsetInCU: 0x28CF1, offset: 0x28CF1, size: 0x8, addend: 0x0, symName: __ZNSt3__114__split_bufferI2MARNS_9allocatorIS1_EEED1Ev, symObjAddr: 0xBA00, symBinAddr: 0x10000CC40, symSize: 0x20 }
  - { offsetInCU: 0x28D1D, offset: 0x28D1D, size: 0x8, addend: 0x0, symName: __ZNKSt3__16vectorI2MANS_9allocatorIS1_EEE8max_sizeEv, symObjAddr: 0xBA20, symBinAddr: 0x10000CC60, symSize: 0x60 }
  - { offsetInCU: 0x28D45, offset: 0x28D45, size: 0x8, addend: 0x0, symName: __ZNKSt3__16vectorI2MANS_9allocatorIS1_EEE20__throw_length_errorB8ue170006Ev, symObjAddr: 0xBA80, symBinAddr: 0x10000CCC0, symSize: 0x20 }
  - { offsetInCU: 0x28D75, offset: 0x28D75, size: 0x8, addend: 0x0, symName: __ZNSt3__116allocator_traitsINS_9allocatorI2MAEEE8max_sizeB8ue170006IS3_vEEmRKS3_, symObjAddr: 0xBAA0, symBinAddr: 0x10000CCE0, symSize: 0x20 }
  - { offsetInCU: 0x28DA3, offset: 0x28DA3, size: 0x8, addend: 0x0, symName: __ZNKSt3__16vectorI2MANS_9allocatorIS1_EEE7__allocB8ue170006Ev, symObjAddr: 0xBAC0, symBinAddr: 0x10000CD00, symSize: 0x20 }
  - { offsetInCU: 0x28DC9, offset: 0x28DC9, size: 0x8, addend: 0x0, symName: __ZNKSt3__19allocatorI2MAE8max_sizeB8ue170006Ev, symObjAddr: 0xBAE0, symBinAddr: 0x10000CD20, symSize: 0x20 }
  - { offsetInCU: 0x28DEF, offset: 0x28DEF, size: 0x8, addend: 0x0, symName: __ZNKSt3__117__compressed_pairIP2MANS_9allocatorIS1_EEE6secondB8ue170006Ev, symObjAddr: 0xBB00, symBinAddr: 0x10000CD40, symSize: 0x20 }
  - { offsetInCU: 0x28E15, offset: 0x28E15, size: 0x8, addend: 0x0, symName: __ZNKSt3__122__compressed_pair_elemINS_9allocatorI2MAEELi1ELb1EE5__getB8ue170006Ev, symObjAddr: 0xBB20, symBinAddr: 0x10000CD60, symSize: 0x10 }
  - { offsetInCU: 0x28E3B, offset: 0x28E3B, size: 0x8, addend: 0x0, symName: __ZNSt3__114__split_bufferI2MARNS_9allocatorIS1_EEEC2EmmS4_, symObjAddr: 0xBB30, symBinAddr: 0x10000CD70, symSize: 0xC0 }
  - { offsetInCU: 0x28EAE, offset: 0x28EAE, size: 0x8, addend: 0x0, symName: __ZNSt3__117__compressed_pairIP2MARNS_9allocatorIS1_EEEC1B8ue170006IDnS5_EEOT_OT0_, symObjAddr: 0xBBF0, symBinAddr: 0x10000CE30, symSize: 0x30 }
  - { offsetInCU: 0x28F06, offset: 0x28F06, size: 0x8, addend: 0x0, symName: __ZNSt3__114__split_bufferI2MARNS_9allocatorIS1_EEE7__allocB8ue170006Ev, symObjAddr: 0xBC60, symBinAddr: 0x10000CEA0, symSize: 0x20 }
  - { offsetInCU: 0x28F2C, offset: 0x28F2C, size: 0x8, addend: 0x0, symName: __ZNSt3__114__split_bufferI2MARNS_9allocatorIS1_EEE9__end_capB8ue170006Ev, symObjAddr: 0xBC80, symBinAddr: 0x10000CEC0, symSize: 0x20 }
  - { offsetInCU: 0x28F52, offset: 0x28F52, size: 0x8, addend: 0x0, symName: __ZNSt3__117__compressed_pairIP2MARNS_9allocatorIS1_EEEC2B8ue170006IDnS5_EEOT_OT0_, symObjAddr: 0xBCA0, symBinAddr: 0x10000CEE0, symSize: 0x40 }
  - { offsetInCU: 0x28FAA, offset: 0x28FAA, size: 0x8, addend: 0x0, symName: __ZNSt3__122__compressed_pair_elemIRNS_9allocatorI2MAEELi1ELb0EEC2B8ue170006IS4_vEEOT_, symObjAddr: 0xBCE0, symBinAddr: 0x10000CF20, symSize: 0x20 }
  - { offsetInCU: 0x28FEC, offset: 0x28FEC, size: 0x8, addend: 0x0, symName: __ZNSt3__19allocatorI2MAE8allocateB8ue170006Em, symObjAddr: 0xBD00, symBinAddr: 0x10000CF40, symSize: 0x50 }
  - { offsetInCU: 0x29020, offset: 0x29020, size: 0x8, addend: 0x0, symName: __ZNSt3__117__compressed_pairIP2MARNS_9allocatorIS1_EEE6secondB8ue170006Ev, symObjAddr: 0xBD50, symBinAddr: 0x10000CF90, symSize: 0x20 }
  - { offsetInCU: 0x29046, offset: 0x29046, size: 0x8, addend: 0x0, symName: __ZNSt3__122__compressed_pair_elemIRNS_9allocatorI2MAEELi1ELb0EE5__getB8ue170006Ev, symObjAddr: 0xBD70, symBinAddr: 0x10000CFB0, symSize: 0x20 }
  - { offsetInCU: 0x2906C, offset: 0x2906C, size: 0x8, addend: 0x0, symName: __ZNSt3__117__compressed_pairIP2MARNS_9allocatorIS1_EEE5firstB8ue170006Ev, symObjAddr: 0xBD90, symBinAddr: 0x10000CFD0, symSize: 0x20 }
  - { offsetInCU: 0x29092, offset: 0x29092, size: 0x8, addend: 0x0, symName: __ZNSt3__116reverse_iteratorIP2MAEC1B8ue170006ES2_, symObjAddr: 0xBF30, symBinAddr: 0x10000D170, symSize: 0x30 }
  - { offsetInCU: 0x290CA, offset: 0x290CA, size: 0x8, addend: 0x0, symName: __ZNKSt3__116reverse_iteratorIP2MAE4baseB8ue170006Ev, symObjAddr: 0xBF60, symBinAddr: 0x10000D1A0, symSize: 0x20 }
  - { offsetInCU: 0x290F0, offset: 0x290F0, size: 0x8, addend: 0x0, symName: __ZNKSt3__16vectorI2MANS_9allocatorIS1_EEE14__annotate_newB8ue170006Em, symObjAddr: 0xBFC0, symBinAddr: 0x10000D200, symSize: 0xA0 }
  - { offsetInCU: 0x29125, offset: 0x29125, size: 0x8, addend: 0x0, symName: __ZNSt3__129_AllocatorDestroyRangeReverseINS_9allocatorI2MAEENS_16reverse_iteratorIPS2_EEEC1B8ue170006ERS3_RS6_S9_, symObjAddr: 0xC0C0, symBinAddr: 0x10000D300, symSize: 0x40 }
  - { offsetInCU: 0x2917C, offset: 0x2917C, size: 0x8, addend: 0x0, symName: __ZNKSt3__116reverse_iteratorIP2MAEdeB8ue170006Ev, symObjAddr: 0xC160, symBinAddr: 0x10000D3A0, symSize: 0x30 }
  - { offsetInCU: 0x291B0, offset: 0x291B0, size: 0x8, addend: 0x0, symName: __ZNSt3__116reverse_iteratorIP2MAEppB8ue170006Ev, symObjAddr: 0xC190, symBinAddr: 0x10000D3D0, symSize: 0x20 }
  - { offsetInCU: 0x291D6, offset: 0x291D6, size: 0x8, addend: 0x0, symName: __ZNSt3__128__exception_guard_exceptionsINS_29_AllocatorDestroyRangeReverseINS_9allocatorI2MAEENS_16reverse_iteratorIPS3_EEEEE10__completeB8ue170006Ev, symObjAddr: 0xC1B0, symBinAddr: 0x10000D3F0, symSize: 0x20 }
  - { offsetInCU: 0x291FC, offset: 0x291FC, size: 0x8, addend: 0x0, symName: __ZNSt3__128__exception_guard_exceptionsINS_29_AllocatorDestroyRangeReverseINS_9allocatorI2MAEENS_16reverse_iteratorIPS3_EEEEED1B8ue170006Ev, symObjAddr: 0xC1D0, symBinAddr: 0x10000D410, symSize: 0x20 }
  - { offsetInCU: 0x29226, offset: 0x29226, size: 0x8, addend: 0x0, symName: __ZNSt3__128__exception_guard_exceptionsINS_29_AllocatorDestroyRangeReverseINS_9allocatorI2MAEENS_16reverse_iteratorIPS3_EEEEEC1B8ue170006ES8_, symObjAddr: 0xC1F0, symBinAddr: 0x10000D430, symSize: 0x40 }
  - { offsetInCU: 0x2925E, offset: 0x2925E, size: 0x8, addend: 0x0, symName: __ZNSt3__128__exception_guard_exceptionsINS_29_AllocatorDestroyRangeReverseINS_9allocatorI2MAEENS_16reverse_iteratorIPS3_EEEEEC2B8ue170006ES8_, symObjAddr: 0xC230, symBinAddr: 0x10000D470, symSize: 0x30 }
  - { offsetInCU: 0x29296, offset: 0x29296, size: 0x8, addend: 0x0, symName: __ZNSt3__129_AllocatorDestroyRangeReverseINS_9allocatorI2MAEENS_16reverse_iteratorIPS2_EEEC2B8ue170006ERS3_RS6_S9_, symObjAddr: 0xC260, symBinAddr: 0x10000D4A0, symSize: 0x40 }
  - { offsetInCU: 0x292F2, offset: 0x292F2, size: 0x8, addend: 0x0, symName: __ZNSt3__119__to_address_helperINS_16reverse_iteratorIP2MAEEvE6__callB8ue170006ERKS4_, symObjAddr: 0xC2A0, symBinAddr: 0x10000D4E0, symSize: 0x40 }
  - { offsetInCU: 0x29315, offset: 0x29315, size: 0x8, addend: 0x0, symName: __ZNKSt3__116reverse_iteratorIP2MAEptB8ue170006Ev, symObjAddr: 0xC2E0, symBinAddr: 0x10000D520, symSize: 0x20 }
  - { offsetInCU: 0x2933B, offset: 0x2933B, size: 0x8, addend: 0x0, symName: __ZNSt3__128__exception_guard_exceptionsINS_29_AllocatorDestroyRangeReverseINS_9allocatorI2MAEENS_16reverse_iteratorIPS3_EEEEED2B8ue170006Ev, symObjAddr: 0xC300, symBinAddr: 0x10000D540, symSize: 0x40 }
  - { offsetInCU: 0x29365, offset: 0x29365, size: 0x8, addend: 0x0, symName: __ZNKSt3__129_AllocatorDestroyRangeReverseINS_9allocatorI2MAEENS_16reverse_iteratorIPS2_EEEclB8ue170006Ev, symObjAddr: 0xC340, symBinAddr: 0x10000D580, symSize: 0xF0 }
  - { offsetInCU: 0x2938C, offset: 0x2938C, size: 0x8, addend: 0x0, symName: __ZNSt3__116reverse_iteratorINS0_IP2MAEEEC1B8ue170006ES3_, symObjAddr: 0xC4A0, symBinAddr: 0x10000D6E0, symSize: 0x30 }
  - { offsetInCU: 0x293C4, offset: 0x293C4, size: 0x8, addend: 0x0, symName: __ZNSt3__116reverse_iteratorINS0_IP2MAEEEppB8ue170006Ev, symObjAddr: 0xC540, symBinAddr: 0x10000D780, symSize: 0x30 }
  - { offsetInCU: 0x293EA, offset: 0x293EA, size: 0x8, addend: 0x0, symName: __ZNKSt3__116reverse_iteratorINS0_IP2MAEEE4baseB8ue170006Ev, symObjAddr: 0xC570, symBinAddr: 0x10000D7B0, symSize: 0x20 }
  - { offsetInCU: 0x29415, offset: 0x29415, size: 0x8, addend: 0x0, symName: __ZNSt3__119__to_address_helperINS_16reverse_iteratorINS1_IP2MAEEEEvE6__callB8ue170006ERKS5_, symObjAddr: 0xC590, symBinAddr: 0x10000D7D0, symSize: 0x40 }
  - { offsetInCU: 0x29438, offset: 0x29438, size: 0x8, addend: 0x0, symName: __ZNKSt3__116reverse_iteratorINS0_IP2MAEEEptB8ue170006Ev, symObjAddr: 0xC5D0, symBinAddr: 0x10000D810, symSize: 0x20 }
  - { offsetInCU: 0x2945E, offset: 0x2945E, size: 0x8, addend: 0x0, symName: __ZNKSt3__116reverse_iteratorINS0_IP2MAEEEdeB8ue170006Ev, symObjAddr: 0xC5F0, symBinAddr: 0x10000D830, symSize: 0x40 }
  - { offsetInCU: 0x29492, offset: 0x29492, size: 0x8, addend: 0x0, symName: __ZNSt3__116reverse_iteratorIP2MAEmmB8ue170006Ev, symObjAddr: 0xC630, symBinAddr: 0x10000D870, symSize: 0x20 }
  - { offsetInCU: 0x294B8, offset: 0x294B8, size: 0x8, addend: 0x0, symName: __ZNSt3__116reverse_iteratorINS0_IP2MAEEEC2B8ue170006ES3_, symObjAddr: 0xC650, symBinAddr: 0x10000D890, symSize: 0x40 }
  - { offsetInCU: 0x294F0, offset: 0x294F0, size: 0x8, addend: 0x0, symName: __ZNSt3__116reverse_iteratorIP2MAEC2B8ue170006ES2_, symObjAddr: 0xC690, symBinAddr: 0x10000D8D0, symSize: 0x30 }
  - { offsetInCU: 0x29528, offset: 0x29528, size: 0x8, addend: 0x0, symName: __ZNSt3__114__split_bufferI2MARNS_9allocatorIS1_EEED2Ev, symObjAddr: 0xC6C0, symBinAddr: 0x10000D900, symSize: 0x70 }
  - { offsetInCU: 0x29554, offset: 0x29554, size: 0x8, addend: 0x0, symName: __ZNSt3__114__split_bufferI2MARNS_9allocatorIS1_EEE5clearB8ue170006Ev, symObjAddr: 0xC730, symBinAddr: 0x10000D970, symSize: 0x20 }
  - { offsetInCU: 0x2957A, offset: 0x2957A, size: 0x8, addend: 0x0, symName: __ZNKSt3__114__split_bufferI2MARNS_9allocatorIS1_EEE8capacityB8ue170006Ev, symObjAddr: 0xC750, symBinAddr: 0x10000D990, symSize: 0x40 }
  - { offsetInCU: 0x295A0, offset: 0x295A0, size: 0x8, addend: 0x0, symName: __ZNSt3__114__split_bufferI2MARNS_9allocatorIS1_EEE17__destruct_at_endB8ue170006EPS1_, symObjAddr: 0xC790, symBinAddr: 0x10000D9D0, symSize: 0x30 }
  - { offsetInCU: 0x295D4, offset: 0x295D4, size: 0x8, addend: 0x0, symName: __ZNSt3__114__split_bufferI2MARNS_9allocatorIS1_EEE17__destruct_at_endB8ue170006EPS1_NS_17integral_constantIbLb0EEE, symObjAddr: 0xC7C0, symBinAddr: 0x10000DA00, symSize: 0x80 }
  - { offsetInCU: 0x29614, offset: 0x29614, size: 0x8, addend: 0x0, symName: __ZNKSt3__114__split_bufferI2MARNS_9allocatorIS1_EEE9__end_capB8ue170006Ev, symObjAddr: 0xC840, symBinAddr: 0x10000DA80, symSize: 0x20 }
  - { offsetInCU: 0x2963A, offset: 0x2963A, size: 0x8, addend: 0x0, symName: __ZNKSt3__117__compressed_pairIP2MARNS_9allocatorIS1_EEE5firstB8ue170006Ev, symObjAddr: 0xC860, symBinAddr: 0x10000DAA0, symSize: 0x20 }
  - { offsetInCU: 0x29660, offset: 0x29660, size: 0x8, addend: 0x0, symName: __ZNSt3__16vectorI3PHDNS_9allocatorIS1_EEE9__end_capB8ue170006Ev, symObjAddr: 0xC880, symBinAddr: 0x10000DAC0, symSize: 0x20 }
  - { offsetInCU: 0x29686, offset: 0x29686, size: 0x8, addend: 0x0, symName: __ZNSt3__16vectorI3PHDNS_9allocatorIS1_EEE22__construct_one_at_endB8ue170006IJRKS1_EEEvDpOT_, symObjAddr: 0xC8A0, symBinAddr: 0x10000DAE0, symSize: 0x90 }
  - { offsetInCU: 0x296D5, offset: 0x296D5, size: 0x8, addend: 0x0, symName: __ZNSt3__16vectorI3PHDNS_9allocatorIS1_EEE21__push_back_slow_pathIRKS1_EEvOT_, symObjAddr: 0xC930, symBinAddr: 0x10000DB70, symSize: 0xD0 }
  - { offsetInCU: 0x29733, offset: 0x29733, size: 0x8, addend: 0x0, symName: __ZNSt3__117__compressed_pairIP3PHDNS_9allocatorIS1_EEE5firstB8ue170006Ev, symObjAddr: 0xCA00, symBinAddr: 0x10000DC40, symSize: 0x20 }
  - { offsetInCU: 0x29759, offset: 0x29759, size: 0x8, addend: 0x0, symName: __ZNSt3__122__compressed_pair_elemIP3PHDLi0ELb0EE5__getB8ue170006Ev, symObjAddr: 0xCA20, symBinAddr: 0x10000DC60, symSize: 0x10 }
  - { offsetInCU: 0x29798, offset: 0x29798, size: 0x8, addend: 0x0, symName: __ZNSt3__16vectorI3PHDNS_9allocatorIS1_EEE21_ConstructTransactionC1B8ue170006ERS4_m, symObjAddr: 0xCA30, symBinAddr: 0x10000DC70, symSize: 0x30 }
  - { offsetInCU: 0x297E0, offset: 0x297E0, size: 0x8, addend: 0x0, symName: __ZNSt3__116allocator_traitsINS_9allocatorI3PHDEEE9constructB8ue170006IS2_JRKS2_EvEEvRS3_PT_DpOT0_, symObjAddr: 0xCA60, symBinAddr: 0x10000DCA0, symSize: 0x30 }
  - { offsetInCU: 0x29837, offset: 0x29837, size: 0x8, addend: 0x0, symName: __ZNSt3__16vectorI3PHDNS_9allocatorIS1_EEE21_ConstructTransactionD1B8ue170006Ev, symObjAddr: 0xCA90, symBinAddr: 0x10000DCD0, symSize: 0x20 }
  - { offsetInCU: 0x29861, offset: 0x29861, size: 0x8, addend: 0x0, symName: __ZNSt3__16vectorI3PHDNS_9allocatorIS1_EEE21_ConstructTransactionC2B8ue170006ERS4_m, symObjAddr: 0xCAB0, symBinAddr: 0x10000DCF0, symSize: 0x40 }
  - { offsetInCU: 0x298A9, offset: 0x298A9, size: 0x8, addend: 0x0, symName: __ZNSt3__19allocatorI3PHDE9constructB8ue170006IS1_JRKS1_EEEvPT_DpOT0_, symObjAddr: 0xCAF0, symBinAddr: 0x10000DD30, symSize: 0x30 }
  - { offsetInCU: 0x298FF, offset: 0x298FF, size: 0x8, addend: 0x0, symName: __ZNSt3__16vectorI3PHDNS_9allocatorIS1_EEE21_ConstructTransactionD2B8ue170006Ev, symObjAddr: 0xCB20, symBinAddr: 0x10000DD60, symSize: 0x20 }
  - { offsetInCU: 0x29929, offset: 0x29929, size: 0x8, addend: 0x0, symName: __ZNKSt3__16vectorI3PHDNS_9allocatorIS1_EEE11__recommendB8ue170006Em, symObjAddr: 0xCB40, symBinAddr: 0x10000DD80, symSize: 0xA0 }
  - { offsetInCU: 0x2997E, offset: 0x2997E, size: 0x8, addend: 0x0, symName: __ZNSt3__114__split_bufferI3PHDRNS_9allocatorIS1_EEEC1EmmS4_, symObjAddr: 0xCBE0, symBinAddr: 0x10000DE20, symSize: 0x40 }
  - { offsetInCU: 0x299D4, offset: 0x299D4, size: 0x8, addend: 0x0, symName: __ZNSt3__114__split_bufferI3PHDRNS_9allocatorIS1_EEED1Ev, symObjAddr: 0xCD40, symBinAddr: 0x10000DF80, symSize: 0x20 }
  - { offsetInCU: 0x29A00, offset: 0x29A00, size: 0x8, addend: 0x0, symName: __ZNKSt3__16vectorI3PHDNS_9allocatorIS1_EEE8max_sizeEv, symObjAddr: 0xCD60, symBinAddr: 0x10000DFA0, symSize: 0x60 }
  - { offsetInCU: 0x29A28, offset: 0x29A28, size: 0x8, addend: 0x0, symName: __ZNKSt3__16vectorI3PHDNS_9allocatorIS1_EEE20__throw_length_errorB8ue170006Ev, symObjAddr: 0xCDC0, symBinAddr: 0x10000E000, symSize: 0x20 }
  - { offsetInCU: 0x29A58, offset: 0x29A58, size: 0x8, addend: 0x0, symName: __ZNSt3__116allocator_traitsINS_9allocatorI3PHDEEE8max_sizeB8ue170006IS3_vEEmRKS3_, symObjAddr: 0xCDE0, symBinAddr: 0x10000E020, symSize: 0x20 }
  - { offsetInCU: 0x29A86, offset: 0x29A86, size: 0x8, addend: 0x0, symName: __ZNKSt3__16vectorI3PHDNS_9allocatorIS1_EEE7__allocB8ue170006Ev, symObjAddr: 0xCE00, symBinAddr: 0x10000E040, symSize: 0x20 }
  - { offsetInCU: 0x29AAC, offset: 0x29AAC, size: 0x8, addend: 0x0, symName: __ZNKSt3__19allocatorI3PHDE8max_sizeB8ue170006Ev, symObjAddr: 0xCE20, symBinAddr: 0x10000E060, symSize: 0x20 }
  - { offsetInCU: 0x29AD2, offset: 0x29AD2, size: 0x8, addend: 0x0, symName: __ZNKSt3__117__compressed_pairIP3PHDNS_9allocatorIS1_EEE6secondB8ue170006Ev, symObjAddr: 0xCE40, symBinAddr: 0x10000E080, symSize: 0x20 }
  - { offsetInCU: 0x29AF8, offset: 0x29AF8, size: 0x8, addend: 0x0, symName: __ZNKSt3__122__compressed_pair_elemINS_9allocatorI3PHDEELi1ELb1EE5__getB8ue170006Ev, symObjAddr: 0xCE60, symBinAddr: 0x10000E0A0, symSize: 0x10 }
  - { offsetInCU: 0x29B1E, offset: 0x29B1E, size: 0x8, addend: 0x0, symName: __ZNSt3__114__split_bufferI3PHDRNS_9allocatorIS1_EEEC2EmmS4_, symObjAddr: 0xCE70, symBinAddr: 0x10000E0B0, symSize: 0xC0 }
  - { offsetInCU: 0x29B91, offset: 0x29B91, size: 0x8, addend: 0x0, symName: __ZNSt3__117__compressed_pairIP3PHDRNS_9allocatorIS1_EEEC1B8ue170006IDnS5_EEOT_OT0_, symObjAddr: 0xCF30, symBinAddr: 0x10000E170, symSize: 0x30 }
  - { offsetInCU: 0x29BE9, offset: 0x29BE9, size: 0x8, addend: 0x0, symName: __ZNSt3__114__split_bufferI3PHDRNS_9allocatorIS1_EEE7__allocB8ue170006Ev, symObjAddr: 0xCFA0, symBinAddr: 0x10000E1E0, symSize: 0x20 }
  - { offsetInCU: 0x29C0F, offset: 0x29C0F, size: 0x8, addend: 0x0, symName: __ZNSt3__114__split_bufferI3PHDRNS_9allocatorIS1_EEE9__end_capB8ue170006Ev, symObjAddr: 0xCFC0, symBinAddr: 0x10000E200, symSize: 0x20 }
  - { offsetInCU: 0x29C35, offset: 0x29C35, size: 0x8, addend: 0x0, symName: __ZNSt3__117__compressed_pairIP3PHDRNS_9allocatorIS1_EEEC2B8ue170006IDnS5_EEOT_OT0_, symObjAddr: 0xCFE0, symBinAddr: 0x10000E220, symSize: 0x40 }
  - { offsetInCU: 0x29C8D, offset: 0x29C8D, size: 0x8, addend: 0x0, symName: __ZNSt3__122__compressed_pair_elemIRNS_9allocatorI3PHDEELi1ELb0EEC2B8ue170006IS4_vEEOT_, symObjAddr: 0xD020, symBinAddr: 0x10000E260, symSize: 0x20 }
  - { offsetInCU: 0x29CCF, offset: 0x29CCF, size: 0x8, addend: 0x0, symName: __ZNSt3__19allocatorI3PHDE8allocateB8ue170006Em, symObjAddr: 0xD040, symBinAddr: 0x10000E280, symSize: 0x50 }
  - { offsetInCU: 0x29D03, offset: 0x29D03, size: 0x8, addend: 0x0, symName: __ZNSt3__117__compressed_pairIP3PHDRNS_9allocatorIS1_EEE6secondB8ue170006Ev, symObjAddr: 0xD090, symBinAddr: 0x10000E2D0, symSize: 0x20 }
  - { offsetInCU: 0x29D29, offset: 0x29D29, size: 0x8, addend: 0x0, symName: __ZNSt3__122__compressed_pair_elemIRNS_9allocatorI3PHDEELi1ELb0EE5__getB8ue170006Ev, symObjAddr: 0xD0B0, symBinAddr: 0x10000E2F0, symSize: 0x20 }
  - { offsetInCU: 0x29D4F, offset: 0x29D4F, size: 0x8, addend: 0x0, symName: __ZNSt3__117__compressed_pairIP3PHDRNS_9allocatorIS1_EEE5firstB8ue170006Ev, symObjAddr: 0xD0D0, symBinAddr: 0x10000E310, symSize: 0x20 }
  - { offsetInCU: 0x29D75, offset: 0x29D75, size: 0x8, addend: 0x0, symName: __ZNSt3__116reverse_iteratorIP3PHDEC1B8ue170006ES2_, symObjAddr: 0xD270, symBinAddr: 0x10000E4B0, symSize: 0x30 }
  - { offsetInCU: 0x29DAD, offset: 0x29DAD, size: 0x8, addend: 0x0, symName: __ZNKSt3__116reverse_iteratorIP3PHDE4baseB8ue170006Ev, symObjAddr: 0xD2A0, symBinAddr: 0x10000E4E0, symSize: 0x20 }
  - { offsetInCU: 0x29DD3, offset: 0x29DD3, size: 0x8, addend: 0x0, symName: __ZNKSt3__16vectorI3PHDNS_9allocatorIS1_EEE14__annotate_newB8ue170006Em, symObjAddr: 0xD300, symBinAddr: 0x10000E540, symSize: 0xA0 }
  - { offsetInCU: 0x29E08, offset: 0x29E08, size: 0x8, addend: 0x0, symName: __ZNSt3__129_AllocatorDestroyRangeReverseINS_9allocatorI3PHDEENS_16reverse_iteratorIPS2_EEEC1B8ue170006ERS3_RS6_S9_, symObjAddr: 0xD400, symBinAddr: 0x10000E640, symSize: 0x40 }
  - { offsetInCU: 0x29E5F, offset: 0x29E5F, size: 0x8, addend: 0x0, symName: __ZNKSt3__116reverse_iteratorIP3PHDEdeB8ue170006Ev, symObjAddr: 0xD4A0, symBinAddr: 0x10000E6E0, symSize: 0x30 }
  - { offsetInCU: 0x29E93, offset: 0x29E93, size: 0x8, addend: 0x0, symName: __ZNSt3__116reverse_iteratorIP3PHDEppB8ue170006Ev, symObjAddr: 0xD4D0, symBinAddr: 0x10000E710, symSize: 0x20 }
  - { offsetInCU: 0x29EB9, offset: 0x29EB9, size: 0x8, addend: 0x0, symName: __ZNSt3__128__exception_guard_exceptionsINS_29_AllocatorDestroyRangeReverseINS_9allocatorI3PHDEENS_16reverse_iteratorIPS3_EEEEE10__completeB8ue170006Ev, symObjAddr: 0xD4F0, symBinAddr: 0x10000E730, symSize: 0x20 }
  - { offsetInCU: 0x29EDF, offset: 0x29EDF, size: 0x8, addend: 0x0, symName: __ZNSt3__128__exception_guard_exceptionsINS_29_AllocatorDestroyRangeReverseINS_9allocatorI3PHDEENS_16reverse_iteratorIPS3_EEEEED1B8ue170006Ev, symObjAddr: 0xD510, symBinAddr: 0x10000E750, symSize: 0x20 }
  - { offsetInCU: 0x29F09, offset: 0x29F09, size: 0x8, addend: 0x0, symName: __ZNSt3__128__exception_guard_exceptionsINS_29_AllocatorDestroyRangeReverseINS_9allocatorI3PHDEENS_16reverse_iteratorIPS3_EEEEEC1B8ue170006ES8_, symObjAddr: 0xD530, symBinAddr: 0x10000E770, symSize: 0x40 }
  - { offsetInCU: 0x29F41, offset: 0x29F41, size: 0x8, addend: 0x0, symName: __ZNSt3__128__exception_guard_exceptionsINS_29_AllocatorDestroyRangeReverseINS_9allocatorI3PHDEENS_16reverse_iteratorIPS3_EEEEEC2B8ue170006ES8_, symObjAddr: 0xD570, symBinAddr: 0x10000E7B0, symSize: 0x30 }
  - { offsetInCU: 0x29F79, offset: 0x29F79, size: 0x8, addend: 0x0, symName: __ZNSt3__129_AllocatorDestroyRangeReverseINS_9allocatorI3PHDEENS_16reverse_iteratorIPS2_EEEC2B8ue170006ERS3_RS6_S9_, symObjAddr: 0xD5A0, symBinAddr: 0x10000E7E0, symSize: 0x40 }
  - { offsetInCU: 0x29FD5, offset: 0x29FD5, size: 0x8, addend: 0x0, symName: __ZNSt3__119__to_address_helperINS_16reverse_iteratorIP3PHDEEvE6__callB8ue170006ERKS4_, symObjAddr: 0xD5E0, symBinAddr: 0x10000E820, symSize: 0x40 }
  - { offsetInCU: 0x29FF8, offset: 0x29FF8, size: 0x8, addend: 0x0, symName: __ZNKSt3__116reverse_iteratorIP3PHDEptB8ue170006Ev, symObjAddr: 0xD620, symBinAddr: 0x10000E860, symSize: 0x20 }
  - { offsetInCU: 0x2A01E, offset: 0x2A01E, size: 0x8, addend: 0x0, symName: __ZNSt3__128__exception_guard_exceptionsINS_29_AllocatorDestroyRangeReverseINS_9allocatorI3PHDEENS_16reverse_iteratorIPS3_EEEEED2B8ue170006Ev, symObjAddr: 0xD640, symBinAddr: 0x10000E880, symSize: 0x40 }
  - { offsetInCU: 0x2A048, offset: 0x2A048, size: 0x8, addend: 0x0, symName: __ZNKSt3__129_AllocatorDestroyRangeReverseINS_9allocatorI3PHDEENS_16reverse_iteratorIPS2_EEEclB8ue170006Ev, symObjAddr: 0xD680, symBinAddr: 0x10000E8C0, symSize: 0xF0 }
  - { offsetInCU: 0x2A06F, offset: 0x2A06F, size: 0x8, addend: 0x0, symName: __ZNSt3__116reverse_iteratorINS0_IP3PHDEEEC1B8ue170006ES3_, symObjAddr: 0xD7E0, symBinAddr: 0x10000EA20, symSize: 0x30 }
  - { offsetInCU: 0x2A0A7, offset: 0x2A0A7, size: 0x8, addend: 0x0, symName: __ZNSt3__116reverse_iteratorINS0_IP3PHDEEEppB8ue170006Ev, symObjAddr: 0xD880, symBinAddr: 0x10000EAC0, symSize: 0x30 }
  - { offsetInCU: 0x2A0CD, offset: 0x2A0CD, size: 0x8, addend: 0x0, symName: __ZNKSt3__116reverse_iteratorINS0_IP3PHDEEE4baseB8ue170006Ev, symObjAddr: 0xD8B0, symBinAddr: 0x10000EAF0, symSize: 0x20 }
  - { offsetInCU: 0x2A0F8, offset: 0x2A0F8, size: 0x8, addend: 0x0, symName: __ZNSt3__119__to_address_helperINS_16reverse_iteratorINS1_IP3PHDEEEEvE6__callB8ue170006ERKS5_, symObjAddr: 0xD8D0, symBinAddr: 0x10000EB10, symSize: 0x40 }
  - { offsetInCU: 0x2A11B, offset: 0x2A11B, size: 0x8, addend: 0x0, symName: __ZNKSt3__116reverse_iteratorINS0_IP3PHDEEEptB8ue170006Ev, symObjAddr: 0xD910, symBinAddr: 0x10000EB50, symSize: 0x20 }
  - { offsetInCU: 0x2A141, offset: 0x2A141, size: 0x8, addend: 0x0, symName: __ZNKSt3__116reverse_iteratorINS0_IP3PHDEEEdeB8ue170006Ev, symObjAddr: 0xD930, symBinAddr: 0x10000EB70, symSize: 0x40 }
  - { offsetInCU: 0x2A175, offset: 0x2A175, size: 0x8, addend: 0x0, symName: __ZNSt3__116reverse_iteratorIP3PHDEmmB8ue170006Ev, symObjAddr: 0xD970, symBinAddr: 0x10000EBB0, symSize: 0x20 }
  - { offsetInCU: 0x2A19B, offset: 0x2A19B, size: 0x8, addend: 0x0, symName: __ZNSt3__116reverse_iteratorINS0_IP3PHDEEEC2B8ue170006ES3_, symObjAddr: 0xD990, symBinAddr: 0x10000EBD0, symSize: 0x40 }
  - { offsetInCU: 0x2A1D3, offset: 0x2A1D3, size: 0x8, addend: 0x0, symName: __ZNSt3__116reverse_iteratorIP3PHDEC2B8ue170006ES2_, symObjAddr: 0xD9D0, symBinAddr: 0x10000EC10, symSize: 0x30 }
  - { offsetInCU: 0x2A20B, offset: 0x2A20B, size: 0x8, addend: 0x0, symName: __ZNSt3__114__split_bufferI3PHDRNS_9allocatorIS1_EEED2Ev, symObjAddr: 0xDA00, symBinAddr: 0x10000EC40, symSize: 0x70 }
  - { offsetInCU: 0x2A237, offset: 0x2A237, size: 0x8, addend: 0x0, symName: __ZNSt3__114__split_bufferI3PHDRNS_9allocatorIS1_EEE5clearB8ue170006Ev, symObjAddr: 0xDA70, symBinAddr: 0x10000ECB0, symSize: 0x20 }
  - { offsetInCU: 0x2A25D, offset: 0x2A25D, size: 0x8, addend: 0x0, symName: __ZNKSt3__114__split_bufferI3PHDRNS_9allocatorIS1_EEE8capacityB8ue170006Ev, symObjAddr: 0xDA90, symBinAddr: 0x10000ECD0, symSize: 0x40 }
  - { offsetInCU: 0x2A283, offset: 0x2A283, size: 0x8, addend: 0x0, symName: __ZNSt3__114__split_bufferI3PHDRNS_9allocatorIS1_EEE17__destruct_at_endB8ue170006EPS1_, symObjAddr: 0xDAD0, symBinAddr: 0x10000ED10, symSize: 0x30 }
  - { offsetInCU: 0x2A2B7, offset: 0x2A2B7, size: 0x8, addend: 0x0, symName: __ZNSt3__114__split_bufferI3PHDRNS_9allocatorIS1_EEE17__destruct_at_endB8ue170006EPS1_NS_17integral_constantIbLb0EEE, symObjAddr: 0xDB00, symBinAddr: 0x10000ED40, symSize: 0x80 }
  - { offsetInCU: 0x2A2F7, offset: 0x2A2F7, size: 0x8, addend: 0x0, symName: __ZNKSt3__114__split_bufferI3PHDRNS_9allocatorIS1_EEE9__end_capB8ue170006Ev, symObjAddr: 0xDB80, symBinAddr: 0x10000EDC0, symSize: 0x20 }
  - { offsetInCU: 0x2A31D, offset: 0x2A31D, size: 0x8, addend: 0x0, symName: __ZNKSt3__117__compressed_pairIP3PHDRNS_9allocatorIS1_EEE5firstB8ue170006Ev, symObjAddr: 0xDBA0, symBinAddr: 0x10000EDE0, symSize: 0x20 }
  - { offsetInCU: 0x2A343, offset: 0x2A343, size: 0x8, addend: 0x0, symName: __ZNKSt3__14listIP7StudentNS_9allocatorIS2_EEE13get_allocatorEv, symObjAddr: 0xDBC0, symBinAddr: 0x10000EE00, symSize: 0x30 }
  - { offsetInCU: 0x2A36B, offset: 0x2A36B, size: 0x8, addend: 0x0, symName: __ZNSt3__14listIP7StudentNS_9allocatorIS2_EEEC1B8ue170006ERKS4_, symObjAddr: 0xDBF0, symBinAddr: 0x10000EE30, symSize: 0x30 }
  - { offsetInCU: 0x2A3A4, offset: 0x2A3A4, size: 0x8, addend: 0x0, symName: __ZNSt3__121__list_const_iteratorIP7StudentPvEC1B8ue170006ERKNS_15__list_iteratorIS2_S3_EE, symObjAddr: 0xDC20, symBinAddr: 0x10000EE60, symSize: 0x30 }
  - { offsetInCU: 0x2A3DD, offset: 0x2A3DD, size: 0x8, addend: 0x0, symName: __ZNSt3__14listIP7StudentNS_9allocatorIS2_EEE3endB8ue170006Ev, symObjAddr: 0xDC50, symBinAddr: 0x10000EE90, symSize: 0x30 }
  - { offsetInCU: 0x2A403, offset: 0x2A403, size: 0x8, addend: 0x0, symName: __ZNKSt3__121__list_const_iteratorIP7StudentPvEdeB8ue170006Ev, symObjAddr: 0xDCB0, symBinAddr: 0x10000EEF0, symSize: 0x30 }
  - { offsetInCU: 0x2A429, offset: 0x2A429, size: 0x8, addend: 0x0, symName: __ZNSt3__121__list_const_iteratorIP7StudentPvEppB8ue170006Ev, symObjAddr: 0xDD10, symBinAddr: 0x10000EF50, symSize: 0x20 }
  - { offsetInCU: 0x2A44F, offset: 0x2A44F, size: 0x8, addend: 0x0, symName: __ZNSt3__14listIP7StudentNS_9allocatorIS2_EEE6spliceENS_21__list_const_iteratorIS2_PvEERS5_S8_S8_, symObjAddr: 0xDD30, symBinAddr: 0x10000EF70, symSize: 0xF0 }
  - { offsetInCU: 0x2A4FC, offset: 0x2A4FC, size: 0x8, addend: 0x0, symName: __ZNKSt3__14listIP7StudentNS_9allocatorIS2_EEE4sizeB8ue170006Ev, symObjAddr: 0xDE20, symBinAddr: 0x10000F060, symSize: 0x20 }
  - { offsetInCU: 0x2A522, offset: 0x2A522, size: 0x8, addend: 0x0, symName: __ZNKSt3__110__list_impIP7StudentNS_9allocatorIS2_EEE12__node_allocB8ue170006Ev, symObjAddr: 0xDE40, symBinAddr: 0x10000F080, symSize: 0x20 }
  - { offsetInCU: 0x2A548, offset: 0x2A548, size: 0x8, addend: 0x0, symName: __ZNSt3__19allocatorIP7StudentEC1B8ue170006INS_11__list_nodeIS2_PvEEEERKNS0_IT_EE, symObjAddr: 0xDE60, symBinAddr: 0x10000F0A0, symSize: 0x30 }
  - { offsetInCU: 0x2A585, offset: 0x2A585, size: 0x8, addend: 0x0, symName: __ZNKSt3__117__compressed_pairImNS_9allocatorINS_11__list_nodeIP7StudentPvEEEEE6secondB8ue170006Ev, symObjAddr: 0xDE90, symBinAddr: 0x10000F0D0, symSize: 0x20 }
  - { offsetInCU: 0x2A5AB, offset: 0x2A5AB, size: 0x8, addend: 0x0, symName: __ZNKSt3__122__compressed_pair_elemINS_9allocatorINS_11__list_nodeIP7StudentPvEEEELi1ELb1EE5__getB8ue170006Ev, symObjAddr: 0xDEB0, symBinAddr: 0x10000F0F0, symSize: 0x10 }
  - { offsetInCU: 0x2A5D1, offset: 0x2A5D1, size: 0x8, addend: 0x0, symName: __ZNSt3__19allocatorIP7StudentEC2B8ue170006INS_11__list_nodeIS2_PvEEEERKNS0_IT_EE, symObjAddr: 0xDEC0, symBinAddr: 0x10000F100, symSize: 0x20 }
  - { offsetInCU: 0x2A60E, offset: 0x2A60E, size: 0x8, addend: 0x0, symName: __ZNSt3__116__non_trivial_ifILb1ENS_9allocatorIP7StudentEEEC2B8ue170006Ev, symObjAddr: 0xDEE0, symBinAddr: 0x10000F120, symSize: 0x10 }
  - { offsetInCU: 0x2A638, offset: 0x2A638, size: 0x8, addend: 0x0, symName: __ZNSt3__14listIP7StudentNS_9allocatorIS2_EEEC2B8ue170006ERKS4_, symObjAddr: 0xDEF0, symBinAddr: 0x10000F130, symSize: 0x30 }
  - { offsetInCU: 0x2A671, offset: 0x2A671, size: 0x8, addend: 0x0, symName: __ZNSt3__110__list_impIP7StudentNS_9allocatorIS2_EEEC2ERKS4_, symObjAddr: 0xDF20, symBinAddr: 0x10000F160, symSize: 0x60 }
  - { offsetInCU: 0x2A6B1, offset: 0x2A6B1, size: 0x8, addend: 0x0, symName: __ZNSt3__19allocatorINS_11__list_nodeIP7StudentPvEEEC1B8ue170006IS3_EERKNS0_IT_EE, symObjAddr: 0xDF80, symBinAddr: 0x10000F1C0, symSize: 0x30 }
  - { offsetInCU: 0x2A6F3, offset: 0x2A6F3, size: 0x8, addend: 0x0, symName: __ZNSt3__117__compressed_pairImNS_9allocatorINS_11__list_nodeIP7StudentPvEEEEEC1B8ue170006IiS7_EEOT_OT0_, symObjAddr: 0xDFB0, symBinAddr: 0x10000F1F0, symSize: 0x30 }
  - { offsetInCU: 0x2A74B, offset: 0x2A74B, size: 0x8, addend: 0x0, symName: __ZNSt3__19allocatorINS_11__list_nodeIP7StudentPvEEEC2B8ue170006IS3_EERKNS0_IT_EE, symObjAddr: 0xDFE0, symBinAddr: 0x10000F220, symSize: 0x20 }
  - { offsetInCU: 0x2A788, offset: 0x2A788, size: 0x8, addend: 0x0, symName: __ZNSt3__117__compressed_pairImNS_9allocatorINS_11__list_nodeIP7StudentPvEEEEEC2B8ue170006IiS7_EEOT_OT0_, symObjAddr: 0xE000, symBinAddr: 0x10000F240, symSize: 0x40 }
  - { offsetInCU: 0x2A7E0, offset: 0x2A7E0, size: 0x8, addend: 0x0, symName: __ZNSt3__122__compressed_pair_elemINS_9allocatorINS_11__list_nodeIP7StudentPvEEEELi1ELb1EEC2B8ue170006IS7_vEEOT_, symObjAddr: 0xE040, symBinAddr: 0x10000F280, symSize: 0x10 }
  - { offsetInCU: 0x2A822, offset: 0x2A822, size: 0x8, addend: 0x0, symName: __ZNSt3__121__list_const_iteratorIP7StudentPvEC2B8ue170006ERKNS_15__list_iteratorIS2_S3_EE, symObjAddr: 0xE050, symBinAddr: 0x10000F290, symSize: 0x20 }
  - { offsetInCU: 0x2A85B, offset: 0x2A85B, size: 0x8, addend: 0x0, symName: __ZNSt3__110__list_impIP7StudentNS_9allocatorIS2_EEE3endB8ue170006Ev, symObjAddr: 0xE070, symBinAddr: 0x10000F2B0, symSize: 0x30 }
  - { offsetInCU: 0x2A881, offset: 0x2A881, size: 0x8, addend: 0x0, symName: __ZNSt3__121__list_const_iteratorIP7StudentPvEmmB8ue170006Ev, symObjAddr: 0xE190, symBinAddr: 0x10000F3D0, symSize: 0x20 }
  - { offsetInCU: 0x2A8A7, offset: 0x2A8A7, size: 0x8, addend: 0x0, symName: __ZNSt3__14listIP7StudentNS_9allocatorIS2_EEE12__link_nodesEPNS_16__list_node_baseIS2_PvEES9_S9_, symObjAddr: 0xE1F0, symBinAddr: 0x10000F430, symSize: 0x50 }
  - { offsetInCU: 0x2A8EB, offset: 0x2A8EB, size: 0x8, addend: 0x0, symName: __ZNSt3__16vectorI2BANS_9allocatorIS1_EEE11__make_iterB8ue170006EPS1_, symObjAddr: 0xE2A0, symBinAddr: 0x10000F4E0, symSize: 0x30 }
  - { offsetInCU: 0x2A920, offset: 0x2A920, size: 0x8, addend: 0x0, symName: __ZNSt3__111__wrap_iterIP2BAEC1B8ue170006ES2_, symObjAddr: 0xE2D0, symBinAddr: 0x10000F510, symSize: 0x30 }
  - { offsetInCU: 0x2A958, offset: 0x2A958, size: 0x8, addend: 0x0, symName: __ZNSt3__111__wrap_iterIP2BAEC2B8ue170006ES2_, symObjAddr: 0xE300, symBinAddr: 0x10000F540, symSize: 0x20 }
  - { offsetInCU: 0x2A990, offset: 0x2A990, size: 0x8, addend: 0x0, symName: __ZNKSt3__16__lessIvvEclB8ue170006I2BAS3_EEbRKT_RKT0_, symObjAddr: 0xE990, symBinAddr: 0x10000FBD0, symSize: 0x30 }
  - { offsetInCU: 0x2A9E4, offset: 0x2A9E4, size: 0x8, addend: 0x0, symName: __ZNSt3__18_IterOpsINS_17_ClassicAlgPolicyEE9iter_swapB8ue170006IRP2BAS6_EEvOT_OT0_, symObjAddr: 0xE9C0, symBinAddr: 0x10000FC00, symSize: 0x30 }
  - { offsetInCU: 0x2AA27, offset: 0x2AA27, size: 0x8, addend: 0x0, symName: __ZNSt3__18_IterOpsINS_17_ClassicAlgPolicyEE9iter_swapB8ue170006IRP2BAS5_EEvOT_OT0_, symObjAddr: 0xEFE0, symBinAddr: 0x100010220, symSize: 0x30 }
  - { offsetInCU: 0x2AA6A, offset: 0x2AA6A, size: 0x8, addend: 0x0, symName: __ZNSt3__18_IterOpsINS_17_ClassicAlgPolicyEE11__iter_moveB8ue170006IRP2BAEENS_9enable_ifIXsr12is_referenceIDTdeclsr3stdE7declvalIRT_EEEEE5valueEDTclsr3stdE4movedeclsr3stdE7declvalIS9_EEEEE4typeEOS8_, symObjAddr: 0xFFE0, symBinAddr: 0x100011220, symSize: 0x20 }
  - { offsetInCU: 0x2AA96, offset: 0x2AA96, size: 0x8, addend: 0x0, symName: __ZNSt3__18_IterOpsINS_17_ClassicAlgPolicyEE25__validate_iter_referenceB8ue170006IRP2BAEEvv, symObjAddr: 0x10000, symBinAddr: 0x100011240, symSize: 0x10 }
  - { offsetInCU: 0x2AAB4, offset: 0x2AAB4, size: 0x8, addend: 0x0, symName: __ZNSt3__18_IterOpsINS_17_ClassicAlgPolicyEE4nextB8ue170006IP2BAEET_S6_S6_, symObjAddr: 0x10010, symBinAddr: 0x100011250, symSize: 0x20 }
  - { offsetInCU: 0x2AAEA, offset: 0x2AAEA, size: 0x8, addend: 0x0, symName: __ZNSt3__18_IterOpsINS_17_ClassicAlgPolicyEE9iter_swapB8ue170006IP2BAS5_EEvOT_OT0_, symObjAddr: 0x10F30, symBinAddr: 0x100012170, symSize: 0x30 }
  - { offsetInCU: 0x2AB46, offset: 0x2AB46, size: 0x8, addend: 0x0, symName: __ZNSt3__14pairIP2BAbEC1B8ue170006IRS2_RbLPv0EEEOT_OT0_, symObjAddr: 0x10F80, symBinAddr: 0x1000121C0, symSize: 0x30 }
  - { offsetInCU: 0x2ABA4, offset: 0x2ABA4, size: 0x8, addend: 0x0, symName: __ZNSt3__14pairIP2BAbEC2B8ue170006IRS2_RbLPv0EEEOT_OT0_, symObjAddr: 0x10FB0, symBinAddr: 0x1000121F0, symSize: 0x30 }
  - { offsetInCU: 0x2AC02, offset: 0x2AC02, size: 0x8, addend: 0x0, symName: __ZNSt3__118__unwrap_iter_implINS_11__wrap_iterIP2BAEELb1EE8__unwrapB8ue170006ES4_, symObjAddr: 0x10FE0, symBinAddr: 0x100012220, symSize: 0x20 }
  - { offsetInCU: 0x2AC2F, offset: 0x2AC2F, size: 0x8, addend: 0x0, symName: __ZNSt3__119__to_address_helperINS_11__wrap_iterIP2BAEEvE6__callB8ue170006ERKS4_, symObjAddr: 0x11020, symBinAddr: 0x100012260, symSize: 0x30 }
  - { offsetInCU: 0x2AC52, offset: 0x2AC52, size: 0x8, addend: 0x0, symName: __ZNSt3__114pointer_traitsINS_11__wrap_iterIP2BAEEE10to_addressB8ue170006ES4_, symObjAddr: 0x11050, symBinAddr: 0x100012290, symSize: 0x30 }
  - { offsetInCU: 0x2AC75, offset: 0x2AC75, size: 0x8, addend: 0x0, symName: __ZNKSt3__111__wrap_iterIP2BAE4baseB8ue170006Ev, symObjAddr: 0x11080, symBinAddr: 0x1000122C0, symSize: 0x20 }
  - { offsetInCU: 0x2AC9B, offset: 0x2AC9B, size: 0x8, addend: 0x0, symName: __ZNSt3__16vectorI2MANS_9allocatorIS1_EEE11__make_iterB8ue170006EPS1_, symObjAddr: 0x110A0, symBinAddr: 0x1000122E0, symSize: 0x30 }
  - { offsetInCU: 0x2ACD0, offset: 0x2ACD0, size: 0x8, addend: 0x0, symName: __ZNSt3__111__wrap_iterIP2MAEC1B8ue170006ES2_, symObjAddr: 0x110D0, symBinAddr: 0x100012310, symSize: 0x30 }
  - { offsetInCU: 0x2AD08, offset: 0x2AD08, size: 0x8, addend: 0x0, symName: __ZNSt3__111__wrap_iterIP2MAEC2B8ue170006ES2_, symObjAddr: 0x11100, symBinAddr: 0x100012340, symSize: 0x20 }
  - { offsetInCU: 0x2AD40, offset: 0x2AD40, size: 0x8, addend: 0x0, symName: __ZNKSt3__16__lessIvvEclB8ue170006I2MAS3_EEbRKT_RKT0_, symObjAddr: 0x11720, symBinAddr: 0x100012960, symSize: 0x30 }
  - { offsetInCU: 0x2AD94, offset: 0x2AD94, size: 0x8, addend: 0x0, symName: __ZNSt3__18_IterOpsINS_17_ClassicAlgPolicyEE9iter_swapB8ue170006IRP2MAS6_EEvOT_OT0_, symObjAddr: 0x11750, symBinAddr: 0x100012990, symSize: 0x30 }
  - { offsetInCU: 0x2ADD7, offset: 0x2ADD7, size: 0x8, addend: 0x0, symName: __ZNSt3__18_IterOpsINS_17_ClassicAlgPolicyEE9iter_swapB8ue170006IRP2MAS5_EEvOT_OT0_, symObjAddr: 0x11D70, symBinAddr: 0x100012FB0, symSize: 0x30 }
  - { offsetInCU: 0x2AE1F, offset: 0x2AE1F, size: 0x8, addend: 0x0, symName: __ZN2MAC1EOS_, symObjAddr: 0x12BA0, symBinAddr: 0x100013DE0, symSize: 0x30 }
  - { offsetInCU: 0x2AE54, offset: 0x2AE54, size: 0x8, addend: 0x0, symName: __ZN2MAaSEOS_, symObjAddr: 0x12BD0, symBinAddr: 0x100013E10, symSize: 0x40 }
  - { offsetInCU: 0x2AE85, offset: 0x2AE85, size: 0x8, addend: 0x0, symName: __ZN2MAC2EOS_, symObjAddr: 0x12C10, symBinAddr: 0x100013E50, symSize: 0x50 }
  - { offsetInCU: 0x2AEBA, offset: 0x2AEBA, size: 0x8, addend: 0x0, symName: __ZNSt3__18_IterOpsINS_17_ClassicAlgPolicyEE11__iter_moveB8ue170006IRP2MAEENS_9enable_ifIXsr12is_referenceIDTdeclsr3stdE7declvalIRT_EEEEE5valueEDTclsr3stdE4movedeclsr3stdE7declvalIS9_EEEEE4typeEOS8_, symObjAddr: 0x12E30, symBinAddr: 0x100014070, symSize: 0x20 }
  - { offsetInCU: 0x2AEE6, offset: 0x2AEE6, size: 0x8, addend: 0x0, symName: __ZNSt3__18_IterOpsINS_17_ClassicAlgPolicyEE25__validate_iter_referenceB8ue170006IRP2MAEEvv, symObjAddr: 0x12E50, symBinAddr: 0x100014090, symSize: 0x10 }
  - { offsetInCU: 0x2AF04, offset: 0x2AF04, size: 0x8, addend: 0x0, symName: __ZNSt3__18_IterOpsINS_17_ClassicAlgPolicyEE4nextB8ue170006IP2MAEET_S6_S6_, symObjAddr: 0x12E60, symBinAddr: 0x1000140A0, symSize: 0x20 }
  - { offsetInCU: 0x2AF3A, offset: 0x2AF3A, size: 0x8, addend: 0x0, symName: __ZNSt3__18_IterOpsINS_17_ClassicAlgPolicyEE9iter_swapB8ue170006IP2MAS5_EEvOT_OT0_, symObjAddr: 0x13D40, symBinAddr: 0x100014F80, symSize: 0x30 }
  - { offsetInCU: 0x2AF96, offset: 0x2AF96, size: 0x8, addend: 0x0, symName: __ZNSt3__14pairIP2MAbEC1B8ue170006IRS2_RbLPv0EEEOT_OT0_, symObjAddr: 0x13D70, symBinAddr: 0x100014FB0, symSize: 0x30 }
  - { offsetInCU: 0x2AFF4, offset: 0x2AFF4, size: 0x8, addend: 0x0, symName: __ZNSt3__14pairIP2MAbEC2B8ue170006IRS2_RbLPv0EEEOT_OT0_, symObjAddr: 0x13DA0, symBinAddr: 0x100014FE0, symSize: 0x30 }
  - { offsetInCU: 0x2B052, offset: 0x2B052, size: 0x8, addend: 0x0, symName: __ZNSt3__118__unwrap_iter_implINS_11__wrap_iterIP2MAEELb1EE8__unwrapB8ue170006ES4_, symObjAddr: 0x13DD0, symBinAddr: 0x100015010, symSize: 0x20 }
  - { offsetInCU: 0x2B07F, offset: 0x2B07F, size: 0x8, addend: 0x0, symName: __ZNSt3__119__to_address_helperINS_11__wrap_iterIP2MAEEvE6__callB8ue170006ERKS4_, symObjAddr: 0x13E10, symBinAddr: 0x100015050, symSize: 0x30 }
  - { offsetInCU: 0x2B0A2, offset: 0x2B0A2, size: 0x8, addend: 0x0, symName: __ZNSt3__114pointer_traitsINS_11__wrap_iterIP2MAEEE10to_addressB8ue170006ES4_, symObjAddr: 0x13E40, symBinAddr: 0x100015080, symSize: 0x30 }
  - { offsetInCU: 0x2B0C5, offset: 0x2B0C5, size: 0x8, addend: 0x0, symName: __ZNKSt3__111__wrap_iterIP2MAE4baseB8ue170006Ev, symObjAddr: 0x13E70, symBinAddr: 0x1000150B0, symSize: 0x20 }
  - { offsetInCU: 0x2B0EB, offset: 0x2B0EB, size: 0x8, addend: 0x0, symName: __ZNSt3__16vectorI3PHDNS_9allocatorIS1_EEE11__make_iterB8ue170006EPS1_, symObjAddr: 0x13E90, symBinAddr: 0x1000150D0, symSize: 0x30 }
  - { offsetInCU: 0x2B120, offset: 0x2B120, size: 0x8, addend: 0x0, symName: __ZNSt3__111__wrap_iterIP3PHDEC1B8ue170006ES2_, symObjAddr: 0x13EC0, symBinAddr: 0x100015100, symSize: 0x30 }
  - { offsetInCU: 0x2B158, offset: 0x2B158, size: 0x8, addend: 0x0, symName: __ZNSt3__111__wrap_iterIP3PHDEC2B8ue170006ES2_, symObjAddr: 0x13EF0, symBinAddr: 0x100015130, symSize: 0x20 }
  - { offsetInCU: 0x2B190, offset: 0x2B190, size: 0x8, addend: 0x0, symName: __ZNKSt3__16__lessIvvEclB8ue170006I3PHDS3_EEbRKT_RKT0_, symObjAddr: 0x14510, symBinAddr: 0x100015750, symSize: 0x30 }
  - { offsetInCU: 0x2B1E4, offset: 0x2B1E4, size: 0x8, addend: 0x0, symName: __ZNSt3__18_IterOpsINS_17_ClassicAlgPolicyEE9iter_swapB8ue170006IRP3PHDS6_EEvOT_OT0_, symObjAddr: 0x14540, symBinAddr: 0x100015780, symSize: 0x30 }
  - { offsetInCU: 0x2B227, offset: 0x2B227, size: 0x8, addend: 0x0, symName: __ZNSt3__18_IterOpsINS_17_ClassicAlgPolicyEE9iter_swapB8ue170006IRP3PHDS5_EEvOT_OT0_, symObjAddr: 0x14B30, symBinAddr: 0x100015D70, symSize: 0x30 }
  - { offsetInCU: 0x2B26F, offset: 0x2B26F, size: 0x8, addend: 0x0, symName: __ZN3PHDC1EOS_, symObjAddr: 0x15900, symBinAddr: 0x100016B40, symSize: 0x30 }
  - { offsetInCU: 0x2B2A4, offset: 0x2B2A4, size: 0x8, addend: 0x0, symName: __ZN3PHDaSEOS_, symObjAddr: 0x15930, symBinAddr: 0x100016B70, symSize: 0x40 }
  - { offsetInCU: 0x2B2D5, offset: 0x2B2D5, size: 0x8, addend: 0x0, symName: __ZN3PHDC2EOS_, symObjAddr: 0x15970, symBinAddr: 0x100016BB0, symSize: 0x50 }
  - { offsetInCU: 0x2B30F, offset: 0x2B30F, size: 0x8, addend: 0x0, symName: __ZN7StudentaSERKS_, symObjAddr: 0x159C0, symBinAddr: 0x100016C00, symSize: 0x60 }
  - { offsetInCU: 0x2B340, offset: 0x2B340, size: 0x8, addend: 0x0, symName: __ZNSt3__18_IterOpsINS_17_ClassicAlgPolicyEE11__iter_moveB8ue170006IRP3PHDEENS_9enable_ifIXsr12is_referenceIDTdeclsr3stdE7declvalIRT_EEEEE5valueEDTclsr3stdE4movedeclsr3stdE7declvalIS9_EEEEE4typeEOS8_, symObjAddr: 0x15BF0, symBinAddr: 0x100016E30, symSize: 0x20 }
  - { offsetInCU: 0x2B36C, offset: 0x2B36C, size: 0x8, addend: 0x0, symName: __ZNSt3__18_IterOpsINS_17_ClassicAlgPolicyEE25__validate_iter_referenceB8ue170006IRP3PHDEEvv, symObjAddr: 0x15C10, symBinAddr: 0x100016E50, symSize: 0x10 }
  - { offsetInCU: 0x2B38A, offset: 0x2B38A, size: 0x8, addend: 0x0, symName: __ZNSt3__18_IterOpsINS_17_ClassicAlgPolicyEE4nextB8ue170006IP3PHDEET_S6_S6_, symObjAddr: 0x15C20, symBinAddr: 0x100016E60, symSize: 0x20 }
  - { offsetInCU: 0x2B3C0, offset: 0x2B3C0, size: 0x8, addend: 0x0, symName: __ZNSt3__18_IterOpsINS_17_ClassicAlgPolicyEE9iter_swapB8ue170006IP3PHDS5_EEvOT_OT0_, symObjAddr: 0x16AB0, symBinAddr: 0x100017CF0, symSize: 0x30 }
  - { offsetInCU: 0x2B41C, offset: 0x2B41C, size: 0x8, addend: 0x0, symName: __ZNSt3__14pairIP3PHDbEC1B8ue170006IRS2_RbLPv0EEEOT_OT0_, symObjAddr: 0x16AE0, symBinAddr: 0x100017D20, symSize: 0x30 }
  - { offsetInCU: 0x2B47A, offset: 0x2B47A, size: 0x8, addend: 0x0, symName: __ZNSt3__14pairIP3PHDbEC2B8ue170006IRS2_RbLPv0EEEOT_OT0_, symObjAddr: 0x16B10, symBinAddr: 0x100017D50, symSize: 0x30 }
  - { offsetInCU: 0x2B4D8, offset: 0x2B4D8, size: 0x8, addend: 0x0, symName: __ZNSt3__118__unwrap_iter_implINS_11__wrap_iterIP3PHDEELb1EE8__unwrapB8ue170006ES4_, symObjAddr: 0x16B40, symBinAddr: 0x100017D80, symSize: 0x20 }
  - { offsetInCU: 0x2B505, offset: 0x2B505, size: 0x8, addend: 0x0, symName: __ZNSt3__119__to_address_helperINS_11__wrap_iterIP3PHDEEvE6__callB8ue170006ERKS4_, symObjAddr: 0x16B80, symBinAddr: 0x100017DC0, symSize: 0x30 }
  - { offsetInCU: 0x2B528, offset: 0x2B528, size: 0x8, addend: 0x0, symName: __ZNSt3__114pointer_traitsINS_11__wrap_iterIP3PHDEEE10to_addressB8ue170006ES4_, symObjAddr: 0x16BB0, symBinAddr: 0x100017DF0, symSize: 0x30 }
  - { offsetInCU: 0x2B54B, offset: 0x2B54B, size: 0x8, addend: 0x0, symName: __ZNSt3__15queueI2BANS_5dequeIS1_NS_9allocatorIS1_EEEEEC2B8ue170006Ev, symObjAddr: 0x16BE0, symBinAddr: 0x100017E20, symSize: 0x20 }
  - { offsetInCU: 0x2B575, offset: 0x2B575, size: 0x8, addend: 0x0, symName: __ZNSt3__15dequeI2BANS_9allocatorIS1_EEEC1B8ue170006Ev, symObjAddr: 0x16C00, symBinAddr: 0x100017E40, symSize: 0x20 }
  - { offsetInCU: 0x2B59F, offset: 0x2B59F, size: 0x8, addend: 0x0, symName: __ZNSt3__15dequeI2BANS_9allocatorIS1_EEEC2B8ue170006Ev, symObjAddr: 0x16C20, symBinAddr: 0x100017E60, symSize: 0x60 }
  - { offsetInCU: 0x2B5C9, offset: 0x2B5C9, size: 0x8, addend: 0x0, symName: __ZNSt3__114__split_bufferIP2BANS_9allocatorIS2_EEEC1B8ue170006Ev, symObjAddr: 0x16C80, symBinAddr: 0x100017EC0, symSize: 0x20 }
  - { offsetInCU: 0x2B5F3, offset: 0x2B5F3, size: 0x8, addend: 0x0, symName: __ZNSt3__117__compressed_pairImNS_9allocatorI2BAEEEC1B8ue170006IiNS_18__default_init_tagEEEOT_OT0_, symObjAddr: 0x16CA0, symBinAddr: 0x100017EE0, symSize: 0x30 }
  - { offsetInCU: 0x2B64B, offset: 0x2B64B, size: 0x8, addend: 0x0, symName: __ZNSt3__114__split_bufferIP2BANS_9allocatorIS2_EEEC2B8ue170006Ev, symObjAddr: 0x16CD0, symBinAddr: 0x100017F10, symSize: 0x60 }
  - { offsetInCU: 0x2B675, offset: 0x2B675, size: 0x8, addend: 0x0, symName: __ZNSt3__117__compressed_pairIPP2BANS_9allocatorIS2_EEEC1B8ue170006IDnNS_18__default_init_tagEEEOT_OT0_, symObjAddr: 0x16D30, symBinAddr: 0x100017F70, symSize: 0x30 }
  - { offsetInCU: 0x2B6CD, offset: 0x2B6CD, size: 0x8, addend: 0x0, symName: __ZNSt3__117__compressed_pairIPP2BANS_9allocatorIS2_EEEC2B8ue170006IDnNS_18__default_init_tagEEEOT_OT0_, symObjAddr: 0x16D60, symBinAddr: 0x100017FA0, symSize: 0x40 }
  - { offsetInCU: 0x2B725, offset: 0x2B725, size: 0x8, addend: 0x0, symName: __ZNSt3__122__compressed_pair_elemIPP2BALi0ELb0EEC2B8ue170006IDnvEEOT_, symObjAddr: 0x16DA0, symBinAddr: 0x100017FE0, symSize: 0x20 }
  - { offsetInCU: 0x2B767, offset: 0x2B767, size: 0x8, addend: 0x0, symName: __ZNSt3__122__compressed_pair_elemINS_9allocatorIP2BAEELi1ELb1EEC2B8ue170006ENS_18__default_init_tagE, symObjAddr: 0x16DC0, symBinAddr: 0x100018000, symSize: 0x20 }
  - { offsetInCU: 0x2B79B, offset: 0x2B79B, size: 0x8, addend: 0x0, symName: __ZNSt3__19allocatorIP2BAEC2B8ue170006Ev, symObjAddr: 0x16DE0, symBinAddr: 0x100018020, symSize: 0x20 }
  - { offsetInCU: 0x2B7C5, offset: 0x2B7C5, size: 0x8, addend: 0x0, symName: __ZNSt3__116__non_trivial_ifILb1ENS_9allocatorIP2BAEEEC2B8ue170006Ev, symObjAddr: 0x16E00, symBinAddr: 0x100018040, symSize: 0x10 }
  - { offsetInCU: 0x2B7EF, offset: 0x2B7EF, size: 0x8, addend: 0x0, symName: __ZNSt3__117__compressed_pairImNS_9allocatorI2BAEEEC2B8ue170006IiNS_18__default_init_tagEEEOT_OT0_, symObjAddr: 0x16E10, symBinAddr: 0x100018050, symSize: 0x40 }
  - { offsetInCU: 0x2B847, offset: 0x2B847, size: 0x8, addend: 0x0, symName: __ZNSt3__15queueI2MANS_5dequeIS1_NS_9allocatorIS1_EEEEEC2B8ue170006Ev, symObjAddr: 0x16E50, symBinAddr: 0x100018090, symSize: 0x20 }
  - { offsetInCU: 0x2B871, offset: 0x2B871, size: 0x8, addend: 0x0, symName: __ZNSt3__15dequeI2MANS_9allocatorIS1_EEEC1B8ue170006Ev, symObjAddr: 0x16E70, symBinAddr: 0x1000180B0, symSize: 0x20 }
  - { offsetInCU: 0x2B89B, offset: 0x2B89B, size: 0x8, addend: 0x0, symName: __ZNSt3__15dequeI2MANS_9allocatorIS1_EEEC2B8ue170006Ev, symObjAddr: 0x16E90, symBinAddr: 0x1000180D0, symSize: 0x60 }
  - { offsetInCU: 0x2B8C5, offset: 0x2B8C5, size: 0x8, addend: 0x0, symName: __ZNSt3__114__split_bufferIP2MANS_9allocatorIS2_EEEC1B8ue170006Ev, symObjAddr: 0x16EF0, symBinAddr: 0x100018130, symSize: 0x20 }
  - { offsetInCU: 0x2B8EF, offset: 0x2B8EF, size: 0x8, addend: 0x0, symName: __ZNSt3__117__compressed_pairImNS_9allocatorI2MAEEEC1B8ue170006IiNS_18__default_init_tagEEEOT_OT0_, symObjAddr: 0x16F10, symBinAddr: 0x100018150, symSize: 0x30 }
  - { offsetInCU: 0x2B947, offset: 0x2B947, size: 0x8, addend: 0x0, symName: __ZNSt3__114__split_bufferIP2MANS_9allocatorIS2_EEEC2B8ue170006Ev, symObjAddr: 0x16F40, symBinAddr: 0x100018180, symSize: 0x60 }
  - { offsetInCU: 0x2B971, offset: 0x2B971, size: 0x8, addend: 0x0, symName: __ZNSt3__117__compressed_pairIPP2MANS_9allocatorIS2_EEEC1B8ue170006IDnNS_18__default_init_tagEEEOT_OT0_, symObjAddr: 0x16FA0, symBinAddr: 0x1000181E0, symSize: 0x30 }
  - { offsetInCU: 0x2B9C9, offset: 0x2B9C9, size: 0x8, addend: 0x0, symName: __ZNSt3__117__compressed_pairIPP2MANS_9allocatorIS2_EEEC2B8ue170006IDnNS_18__default_init_tagEEEOT_OT0_, symObjAddr: 0x16FD0, symBinAddr: 0x100018210, symSize: 0x40 }
  - { offsetInCU: 0x2BA21, offset: 0x2BA21, size: 0x8, addend: 0x0, symName: __ZNSt3__122__compressed_pair_elemIPP2MALi0ELb0EEC2B8ue170006IDnvEEOT_, symObjAddr: 0x17010, symBinAddr: 0x100018250, symSize: 0x20 }
  - { offsetInCU: 0x2BA63, offset: 0x2BA63, size: 0x8, addend: 0x0, symName: __ZNSt3__122__compressed_pair_elemINS_9allocatorIP2MAEELi1ELb1EEC2B8ue170006ENS_18__default_init_tagE, symObjAddr: 0x17030, symBinAddr: 0x100018270, symSize: 0x20 }
  - { offsetInCU: 0x2BA97, offset: 0x2BA97, size: 0x8, addend: 0x0, symName: __ZNSt3__19allocatorIP2MAEC2B8ue170006Ev, symObjAddr: 0x17050, symBinAddr: 0x100018290, symSize: 0x20 }
  - { offsetInCU: 0x2BAC1, offset: 0x2BAC1, size: 0x8, addend: 0x0, symName: __ZNSt3__116__non_trivial_ifILb1ENS_9allocatorIP2MAEEEC2B8ue170006Ev, symObjAddr: 0x17070, symBinAddr: 0x1000182B0, symSize: 0x10 }
  - { offsetInCU: 0x2BAEB, offset: 0x2BAEB, size: 0x8, addend: 0x0, symName: __ZNSt3__117__compressed_pairImNS_9allocatorI2MAEEEC2B8ue170006IiNS_18__default_init_tagEEEOT_OT0_, symObjAddr: 0x17080, symBinAddr: 0x1000182C0, symSize: 0x40 }
  - { offsetInCU: 0x2BB43, offset: 0x2BB43, size: 0x8, addend: 0x0, symName: __ZNSt3__15stackI3PHDNS_5dequeIS1_NS_9allocatorIS1_EEEEEC2B8ue170006Ev, symObjAddr: 0x170C0, symBinAddr: 0x100018300, symSize: 0x20 }
  - { offsetInCU: 0x2BB6D, offset: 0x2BB6D, size: 0x8, addend: 0x0, symName: __ZNSt3__15dequeI3PHDNS_9allocatorIS1_EEEC1B8ue170006Ev, symObjAddr: 0x170E0, symBinAddr: 0x100018320, symSize: 0x20 }
  - { offsetInCU: 0x2BB97, offset: 0x2BB97, size: 0x8, addend: 0x0, symName: __ZNSt3__15dequeI3PHDNS_9allocatorIS1_EEEC2B8ue170006Ev, symObjAddr: 0x17100, symBinAddr: 0x100018340, symSize: 0x60 }
  - { offsetInCU: 0x2BBC1, offset: 0x2BBC1, size: 0x8, addend: 0x0, symName: __ZNSt3__114__split_bufferIP3PHDNS_9allocatorIS2_EEEC1B8ue170006Ev, symObjAddr: 0x17160, symBinAddr: 0x1000183A0, symSize: 0x20 }
  - { offsetInCU: 0x2BBEB, offset: 0x2BBEB, size: 0x8, addend: 0x0, symName: __ZNSt3__117__compressed_pairImNS_9allocatorI3PHDEEEC1B8ue170006IiNS_18__default_init_tagEEEOT_OT0_, symObjAddr: 0x17180, symBinAddr: 0x1000183C0, symSize: 0x30 }
  - { offsetInCU: 0x2BC43, offset: 0x2BC43, size: 0x8, addend: 0x0, symName: __ZNSt3__114__split_bufferIP3PHDNS_9allocatorIS2_EEEC2B8ue170006Ev, symObjAddr: 0x171B0, symBinAddr: 0x1000183F0, symSize: 0x60 }
  - { offsetInCU: 0x2BC6D, offset: 0x2BC6D, size: 0x8, addend: 0x0, symName: __ZNSt3__117__compressed_pairIPP3PHDNS_9allocatorIS2_EEEC1B8ue170006IDnNS_18__default_init_tagEEEOT_OT0_, symObjAddr: 0x17210, symBinAddr: 0x100018450, symSize: 0x30 }
  - { offsetInCU: 0x2BCC5, offset: 0x2BCC5, size: 0x8, addend: 0x0, symName: __ZNSt3__117__compressed_pairIPP3PHDNS_9allocatorIS2_EEEC2B8ue170006IDnNS_18__default_init_tagEEEOT_OT0_, symObjAddr: 0x17240, symBinAddr: 0x100018480, symSize: 0x40 }
  - { offsetInCU: 0x2BD1D, offset: 0x2BD1D, size: 0x8, addend: 0x0, symName: __ZNSt3__122__compressed_pair_elemIPP3PHDLi0ELb0EEC2B8ue170006IDnvEEOT_, symObjAddr: 0x17280, symBinAddr: 0x1000184C0, symSize: 0x20 }
  - { offsetInCU: 0x2BD5F, offset: 0x2BD5F, size: 0x8, addend: 0x0, symName: __ZNSt3__122__compressed_pair_elemINS_9allocatorIP3PHDEELi1ELb1EEC2B8ue170006ENS_18__default_init_tagE, symObjAddr: 0x172A0, symBinAddr: 0x1000184E0, symSize: 0x20 }
  - { offsetInCU: 0x2BD93, offset: 0x2BD93, size: 0x8, addend: 0x0, symName: __ZNSt3__19allocatorIP3PHDEC2B8ue170006Ev, symObjAddr: 0x172C0, symBinAddr: 0x100018500, symSize: 0x20 }
  - { offsetInCU: 0x2BDBD, offset: 0x2BDBD, size: 0x8, addend: 0x0, symName: __ZNSt3__116__non_trivial_ifILb1ENS_9allocatorIP3PHDEEEC2B8ue170006Ev, symObjAddr: 0x172E0, symBinAddr: 0x100018520, symSize: 0x10 }
  - { offsetInCU: 0x2BDE7, offset: 0x2BDE7, size: 0x8, addend: 0x0, symName: __ZNSt3__117__compressed_pairImNS_9allocatorI3PHDEEEC2B8ue170006IiNS_18__default_init_tagEEEOT_OT0_, symObjAddr: 0x172F0, symBinAddr: 0x100018530, symSize: 0x40 }
  - { offsetInCU: 0x2BE3F, offset: 0x2BE3F, size: 0x8, addend: 0x0, symName: __ZNSt3__116reverse_iteratorINS_11__wrap_iterIP2BAEEEC1B8ue170006ES4_, symObjAddr: 0x17330, symBinAddr: 0x100018570, symSize: 0x30 }
  - { offsetInCU: 0x2BE77, offset: 0x2BE77, size: 0x8, addend: 0x0, symName: __ZNSt3__116reverse_iteratorINS_11__wrap_iterIP2BAEEEC2B8ue170006ES4_, symObjAddr: 0x17360, symBinAddr: 0x1000185A0, symSize: 0x30 }
  - { offsetInCU: 0x2BEAF, offset: 0x2BEAF, size: 0x8, addend: 0x0, symName: __ZNSt3__116reverse_iteratorINS_11__wrap_iterIPK2BAEEEC2B8ue170006INS1_IPS2_EEvEERKNS0_IT_EE, symObjAddr: 0x17390, symBinAddr: 0x1000185D0, symSize: 0x70 }
  - { offsetInCU: 0x2BEF1, offset: 0x2BEF1, size: 0x8, addend: 0x0, symName: __ZNKSt3__116reverse_iteratorINS_11__wrap_iterIP2BAEEE4baseB8ue170006Ev, symObjAddr: 0x17400, symBinAddr: 0x100018640, symSize: 0x20 }
  - { offsetInCU: 0x2BF1C, offset: 0x2BF1C, size: 0x8, addend: 0x0, symName: __ZNSt3__111__wrap_iterIPK2BAEC1B8ue170006IPS1_EERKNS0_IT_EEPNS_9enable_ifIXsr14is_convertibleIS7_S3_EE5valueEvE4typeE, symObjAddr: 0x17420, symBinAddr: 0x100018660, symSize: 0x30 }
  - { offsetInCU: 0x2BF67, offset: 0x2BF67, size: 0x8, addend: 0x0, symName: __ZNSt3__111__wrap_iterIPK2BAEC2B8ue170006IPS1_EERKNS0_IT_EEPNS_9enable_ifIXsr14is_convertibleIS7_S3_EE5valueEvE4typeE, symObjAddr: 0x17450, symBinAddr: 0x100018690, symSize: 0x40 }
  - { offsetInCU: 0x2BFB2, offset: 0x2BFB2, size: 0x8, addend: 0x0, symName: __ZNSt3__116reverse_iteratorINS_11__wrap_iterIP2MAEEEC1B8ue170006ES4_, symObjAddr: 0x17490, symBinAddr: 0x1000186D0, symSize: 0x30 }
  - { offsetInCU: 0x2BFEA, offset: 0x2BFEA, size: 0x8, addend: 0x0, symName: __ZNSt3__116reverse_iteratorINS_11__wrap_iterIP2MAEEEC2B8ue170006ES4_, symObjAddr: 0x174C0, symBinAddr: 0x100018700, symSize: 0x30 }
  - { offsetInCU: 0x2C022, offset: 0x2C022, size: 0x8, addend: 0x0, symName: __ZNSt3__116reverse_iteratorINS_11__wrap_iterIPK2MAEEEC2B8ue170006INS1_IPS2_EEvEERKNS0_IT_EE, symObjAddr: 0x174F0, symBinAddr: 0x100018730, symSize: 0x70 }
  - { offsetInCU: 0x2C064, offset: 0x2C064, size: 0x8, addend: 0x0, symName: __ZNKSt3__116reverse_iteratorINS_11__wrap_iterIP2MAEEE4baseB8ue170006Ev, symObjAddr: 0x17560, symBinAddr: 0x1000187A0, symSize: 0x20 }
  - { offsetInCU: 0x2C08A, offset: 0x2C08A, size: 0x8, addend: 0x0, symName: __ZNSt3__111__wrap_iterIPK2MAEC1B8ue170006IPS1_EERKNS0_IT_EEPNS_9enable_ifIXsr14is_convertibleIS7_S3_EE5valueEvE4typeE, symObjAddr: 0x17580, symBinAddr: 0x1000187C0, symSize: 0x30 }
  - { offsetInCU: 0x2C0D5, offset: 0x2C0D5, size: 0x8, addend: 0x0, symName: __ZNSt3__111__wrap_iterIPK2MAEC2B8ue170006IPS1_EERKNS0_IT_EEPNS_9enable_ifIXsr14is_convertibleIS7_S3_EE5valueEvE4typeE, symObjAddr: 0x175B0, symBinAddr: 0x1000187F0, symSize: 0x40 }
  - { offsetInCU: 0x2C120, offset: 0x2C120, size: 0x8, addend: 0x0, symName: __ZNKSt3__116reverse_iteratorINS_11__wrap_iterIPK2BAEEE4baseB8ue170006Ev, symObjAddr: 0x17620, symBinAddr: 0x100018860, symSize: 0x20 }
  - { offsetInCU: 0x2C146, offset: 0x2C146, size: 0x8, addend: 0x0, symName: __ZNKSt3__111__wrap_iterIPK2BAE4baseB8ue170006Ev, symObjAddr: 0x17680, symBinAddr: 0x1000188C0, symSize: 0x20 }
  - { offsetInCU: 0x2C16C, offset: 0x2C16C, size: 0x8, addend: 0x0, symName: __ZNSt3__111__wrap_iterIPK2BAEmmB8ue170006Ev, symObjAddr: 0x176A0, symBinAddr: 0x1000188E0, symSize: 0x20 }
  - { offsetInCU: 0x2C192, offset: 0x2C192, size: 0x8, addend: 0x0, symName: __ZNKSt3__111__wrap_iterIPK2BAEdeB8ue170006Ev, symObjAddr: 0x176C0, symBinAddr: 0x100018900, symSize: 0x20 }
  - { offsetInCU: 0x2C1B8, offset: 0x2C1B8, size: 0x8, addend: 0x0, symName: __ZNSt3__15dequeI2BANS_9allocatorIS1_EEE9push_backERKS1_, symObjAddr: 0x176E0, symBinAddr: 0x100018920, symSize: 0xA0 }
  - { offsetInCU: 0x2C1FE, offset: 0x2C1FE, size: 0x8, addend: 0x0, symName: __ZNKSt3__15dequeI2BANS_9allocatorIS1_EEE12__back_spareB8ue170006Ev, symObjAddr: 0x17780, symBinAddr: 0x1000189C0, symSize: 0x50 }
  - { offsetInCU: 0x2C224, offset: 0x2C224, size: 0x8, addend: 0x0, symName: __ZNSt3__15dequeI2BANS_9allocatorIS1_EEE19__add_back_capacityEv, symObjAddr: 0x177D0, symBinAddr: 0x100018A10, symSize: 0x3C0 }
  - { offsetInCU: 0x2C2D9, offset: 0x2C2D9, size: 0x8, addend: 0x0, symName: __ZNKSt3__15dequeI2BANS_9allocatorIS1_EEE24__annotate_increase_backB8ue170006Em, symObjAddr: 0x17B90, symBinAddr: 0x100018DD0, symSize: 0x70 }
  - { offsetInCU: 0x2C30E, offset: 0x2C30E, size: 0x8, addend: 0x0, symName: __ZNKSt3__15dequeI2BANS_9allocatorIS1_EEE10__capacityB8ue170006Ev, symObjAddr: 0x17C00, symBinAddr: 0x100018E40, symSize: 0x50 }
  - { offsetInCU: 0x2C334, offset: 0x2C334, size: 0x8, addend: 0x0, symName: __ZNKSt3__15dequeI2BANS_9allocatorIS1_EEE13__front_spareB8ue170006Ev, symObjAddr: 0x17C50, symBinAddr: 0x100018E90, symSize: 0x20 }
  - { offsetInCU: 0x2C35A, offset: 0x2C35A, size: 0x8, addend: 0x0, symName: __ZNSt3__114__split_bufferIP2BANS_9allocatorIS2_EEE9push_backB8ue170006ERKS2_, symObjAddr: 0x17C70, symBinAddr: 0x100018EB0, symSize: 0x290 }
  - { offsetInCU: 0x2C3D2, offset: 0x2C3D2, size: 0x8, addend: 0x0, symName: __ZNKSt3__114__split_bufferIP2BANS_9allocatorIS2_EEE12__back_spareB8ue170006Ev, symObjAddr: 0x17F00, symBinAddr: 0x100019140, symSize: 0x40 }
  - { offsetInCU: 0x2C3F8, offset: 0x2C3F8, size: 0x8, addend: 0x0, symName: __ZNSt3__114__split_bufferIP2BANS_9allocatorIS2_EEE9push_backEOS2_, symObjAddr: 0x17F40, symBinAddr: 0x100019180, symSize: 0x290 }
  - { offsetInCU: 0x2C470, offset: 0x2C470, size: 0x8, addend: 0x0, symName: __ZNSt3__116allocator_traitsINS_9allocatorI2BAEEE8allocateB8ue170006ERS3_m, symObjAddr: 0x181D0, symBinAddr: 0x100019410, symSize: 0x30 }
  - { offsetInCU: 0x2C4A3, offset: 0x2C4A3, size: 0x8, addend: 0x0, symName: __ZNSt3__114__split_bufferIP2BANS_9allocatorIS2_EEE10push_frontEOS2_, symObjAddr: 0x18200, symBinAddr: 0x100019440, symSize: 0x270 }
  - { offsetInCU: 0x2C51B, offset: 0x2C51B, size: 0x8, addend: 0x0, symName: __ZNSt3__114__split_bufferIP2BARNS_9allocatorIS2_EEEC1EmmS5_, symObjAddr: 0x18470, symBinAddr: 0x1000196B0, symSize: 0x40 }
  - { offsetInCU: 0x2C576, offset: 0x2C576, size: 0x8, addend: 0x0, symName: __ZNSt3__122__allocator_destructorINS_9allocatorI2BAEEEC1B8ue170006ERS3_m, symObjAddr: 0x184B0, symBinAddr: 0x1000196F0, symSize: 0x30 }
  - { offsetInCU: 0x2C625, offset: 0x2C625, size: 0x8, addend: 0x0, symName: __ZNSt3__110unique_ptrIP2BANS_22__allocator_destructorINS_9allocatorIS1_EEEEEC1B8ue170006ILb1EvEES2_NS_16__dependent_typeINS_27__unique_ptr_deleter_sfinaeIS6_EEXT_EE20__good_rval_ref_typeE, symObjAddr: 0x184E0, symBinAddr: 0x100019720, symSize: 0x30 }
  - { offsetInCU: 0x2C676, offset: 0x2C676, size: 0x8, addend: 0x0, symName: __ZNSt3__114__split_bufferIP2BARNS_9allocatorIS2_EEE9push_backEOS2_, symObjAddr: 0x18510, symBinAddr: 0x100019750, symSize: 0x290 }
  - { offsetInCU: 0x2C6EE, offset: 0x2C6EE, size: 0x8, addend: 0x0, symName: __ZNKSt3__110unique_ptrIP2BANS_22__allocator_destructorINS_9allocatorIS1_EEEEE3getB8ue170006Ev, symObjAddr: 0x187A0, symBinAddr: 0x1000199E0, symSize: 0x20 }
  - { offsetInCU: 0x2C714, offset: 0x2C714, size: 0x8, addend: 0x0, symName: __ZNSt3__110unique_ptrIP2BANS_22__allocator_destructorINS_9allocatorIS1_EEEEE7releaseB8ue170006Ev, symObjAddr: 0x187C0, symBinAddr: 0x100019A00, symSize: 0x40 }
  - { offsetInCU: 0x2C749, offset: 0x2C749, size: 0x8, addend: 0x0, symName: __ZNSt3__114__split_bufferIP2BARNS_9allocatorIS2_EEE10push_frontERKS2_, symObjAddr: 0x18800, symBinAddr: 0x100019A40, symSize: 0x270 }
  - { offsetInCU: 0x2C7C1, offset: 0x2C7C1, size: 0x8, addend: 0x0, symName: __ZNSt3__114__split_bufferIP2BANS_9allocatorIS2_EEE9__end_capB8ue170006Ev, symObjAddr: 0x18AB0, symBinAddr: 0x100019CF0, symSize: 0x20 }
  - { offsetInCU: 0x2C7E7, offset: 0x2C7E7, size: 0x8, addend: 0x0, symName: __ZNSt3__114__split_bufferIP2BARNS_9allocatorIS2_EEE9__end_capB8ue170006Ev, symObjAddr: 0x18AD0, symBinAddr: 0x100019D10, symSize: 0x20 }
  - { offsetInCU: 0x2C80D, offset: 0x2C80D, size: 0x8, addend: 0x0, symName: __ZNSt3__110unique_ptrIP2BANS_22__allocator_destructorINS_9allocatorIS1_EEEEED1B8ue170006Ev, symObjAddr: 0x18AF0, symBinAddr: 0x100019D30, symSize: 0x20 }
  - { offsetInCU: 0x2C837, offset: 0x2C837, size: 0x8, addend: 0x0, symName: __ZNSt3__114__split_bufferIP2BARNS_9allocatorIS2_EEED1Ev, symObjAddr: 0x18B10, symBinAddr: 0x100019D50, symSize: 0x20 }
  - { offsetInCU: 0x2C863, offset: 0x2C863, size: 0x8, addend: 0x0, symName: __ZNSt3__114__split_bufferIP2BARNS_9allocatorIS2_EEE18__construct_at_endINS_13move_iteratorIPS2_EEEENS_9enable_ifIXsr31__has_forward_iterator_categoryIT_EE5valueEvE4typeESC_SC_, symObjAddr: 0x18B70, symBinAddr: 0x100019DB0, symSize: 0x60 }
  - { offsetInCU: 0x2C8B0, offset: 0x2C8B0, size: 0x8, addend: 0x0, symName: __ZNSt3__113move_iteratorIPP2BAEC1B8ue170006ES3_, symObjAddr: 0x18BD0, symBinAddr: 0x100019E10, symSize: 0x30 }
  - { offsetInCU: 0x2C8E8, offset: 0x2C8E8, size: 0x8, addend: 0x0, symName: __ZNSt3__116allocator_traitsINS_9allocatorIP2BAEEE9constructB8ue170006IS3_JRKS3_EvEEvRS4_PT_DpOT0_, symObjAddr: 0x18C00, symBinAddr: 0x100019E40, symSize: 0x30 }
  - { offsetInCU: 0x2C962, offset: 0x2C962, size: 0x8, addend: 0x0, symName: __ZNKSt3__114__move_trivialclB8ue170006IP2BAS3_Li0EEENS_4pairIPT_PT0_EES6_S6_S8_, symObjAddr: 0x18DB0, symBinAddr: 0x100019FF0, symSize: 0x40 }
  - { offsetInCU: 0x2C9CF, offset: 0x2C9CF, size: 0x8, addend: 0x0, symName: __ZNSt3__14pairIPP2BAS3_EC1B8ue170006IRS3_S3_LPv0EEEOT_OT0_, symObjAddr: 0x18FA0, symBinAddr: 0x10001A1E0, symSize: 0x30 }
  - { offsetInCU: 0x2CA2D, offset: 0x2CA2D, size: 0x8, addend: 0x0, symName: __ZNSt3__14pairIPP2BAS3_EC2B8ue170006IRS3_S3_LPv0EEEOT_OT0_, symObjAddr: 0x18FD0, symBinAddr: 0x10001A210, symSize: 0x30 }
  - { offsetInCU: 0x2CA8B, offset: 0x2CA8B, size: 0x8, addend: 0x0, symName: __ZNSt3__118__unwrap_iter_implIPP2BALb1EE8__unwrapB8ue170006ES3_, symObjAddr: 0x19000, symBinAddr: 0x10001A240, symSize: 0x20 }
  - { offsetInCU: 0x2CAAE, offset: 0x2CAAE, size: 0x8, addend: 0x0, symName: __ZNSt3__14pairIPP2BAS3_EC1B8ue170006IS3_S3_LPv0EEEOT_OT0_, symObjAddr: 0x19020, symBinAddr: 0x10001A260, symSize: 0x30 }
  - { offsetInCU: 0x2CB0C, offset: 0x2CB0C, size: 0x8, addend: 0x0, symName: __ZNSt3__14pairIPP2BAS3_EC2B8ue170006IS3_S3_LPv0EEEOT_OT0_, symObjAddr: 0x19050, symBinAddr: 0x10001A290, symSize: 0x30 }
  - { offsetInCU: 0x2CB6A, offset: 0x2CB6A, size: 0x8, addend: 0x0, symName: __ZNSt3__118__unwrap_iter_implIPP2BALb1EE8__rewrapB8ue170006ES3_S3_, symObjAddr: 0x19080, symBinAddr: 0x10001A2C0, symSize: 0x50 }
  - { offsetInCU: 0x2CB9B, offset: 0x2CB9B, size: 0x8, addend: 0x0, symName: __ZNSt3__114__split_bufferIP2BARNS_9allocatorIS2_EEE28__construct_at_end_with_sizeINS_13move_iteratorIPS2_EEEEvT_m, symObjAddr: 0x190D0, symBinAddr: 0x10001A310, symSize: 0xE0 }
  - { offsetInCU: 0x2CC01, offset: 0x2CC01, size: 0x8, addend: 0x0, symName: __ZNSt3__114__split_bufferIP2BARNS_9allocatorIS2_EEE21_ConstructTransactionC1B8ue170006EPPS2_m, symObjAddr: 0x191F0, symBinAddr: 0x10001A430, symSize: 0x30 }
  - { offsetInCU: 0x2CC47, offset: 0x2CC47, size: 0x8, addend: 0x0, symName: __ZNSt3__116allocator_traitsINS_9allocatorIP2BAEEE9constructB8ue170006IS3_JS3_EvEEvRS4_PT_DpOT0_, symObjAddr: 0x19220, symBinAddr: 0x10001A460, symSize: 0x30 }
  - { offsetInCU: 0x2CC9E, offset: 0x2CC9E, size: 0x8, addend: 0x0, symName: __ZNSt3__114__split_bufferIP2BARNS_9allocatorIS2_EEE7__allocB8ue170006Ev, symObjAddr: 0x19250, symBinAddr: 0x10001A490, symSize: 0x20 }
  - { offsetInCU: 0x2CCC4, offset: 0x2CCC4, size: 0x8, addend: 0x0, symName: __ZNKSt3__113move_iteratorIPP2BAEdeB8ue170006Ev, symObjAddr: 0x19270, symBinAddr: 0x10001A4B0, symSize: 0x20 }
  - { offsetInCU: 0x2CCEA, offset: 0x2CCEA, size: 0x8, addend: 0x0, symName: __ZNSt3__113move_iteratorIPP2BAEppB8ue170006Ev, symObjAddr: 0x19290, symBinAddr: 0x10001A4D0, symSize: 0x20 }
  - { offsetInCU: 0x2CD10, offset: 0x2CD10, size: 0x8, addend: 0x0, symName: __ZNSt3__114__split_bufferIP2BARNS_9allocatorIS2_EEE21_ConstructTransactionD1B8ue170006Ev, symObjAddr: 0x192B0, symBinAddr: 0x10001A4F0, symSize: 0x20 }
  - { offsetInCU: 0x2CD3A, offset: 0x2CD3A, size: 0x8, addend: 0x0, symName: __ZNSt3__114__split_bufferIP2BARNS_9allocatorIS2_EEE21_ConstructTransactionC2B8ue170006EPPS2_m, symObjAddr: 0x192D0, symBinAddr: 0x10001A510, symSize: 0x40 }
  - { offsetInCU: 0x2CD80, offset: 0x2CD80, size: 0x8, addend: 0x0, symName: __ZNSt3__19allocatorIP2BAE9constructB8ue170006IS2_JS2_EEEvPT_DpOT0_, symObjAddr: 0x19310, symBinAddr: 0x10001A550, symSize: 0x20 }
  - { offsetInCU: 0x2CDD6, offset: 0x2CDD6, size: 0x8, addend: 0x0, symName: __ZNSt3__117__compressed_pairIPP2BARNS_9allocatorIS2_EEE6secondB8ue170006Ev, symObjAddr: 0x19330, symBinAddr: 0x10001A570, symSize: 0x20 }
  - { offsetInCU: 0x2CDFC, offset: 0x2CDFC, size: 0x8, addend: 0x0, symName: __ZNSt3__122__compressed_pair_elemIRNS_9allocatorIP2BAEELi1ELb0EE5__getB8ue170006Ev, symObjAddr: 0x19350, symBinAddr: 0x10001A590, symSize: 0x20 }
  - { offsetInCU: 0x2CE22, offset: 0x2CE22, size: 0x8, addend: 0x0, symName: __ZNSt3__114__split_bufferIP2BARNS_9allocatorIS2_EEE21_ConstructTransactionD2B8ue170006Ev, symObjAddr: 0x19370, symBinAddr: 0x10001A5B0, symSize: 0x20 }
  - { offsetInCU: 0x2CE4C, offset: 0x2CE4C, size: 0x8, addend: 0x0, symName: __ZNKSt3__113move_iteratorIPP2BAE4baseB8ue170006Ev, symObjAddr: 0x19400, symBinAddr: 0x10001A640, symSize: 0x20 }
  - { offsetInCU: 0x2CE72, offset: 0x2CE72, size: 0x8, addend: 0x0, symName: __ZNSt3__113move_iteratorIPP2BAEC2B8ue170006ES3_, symObjAddr: 0x19420, symBinAddr: 0x10001A660, symSize: 0x20 }
  - { offsetInCU: 0x2CEAA, offset: 0x2CEAA, size: 0x8, addend: 0x0, symName: __ZNSt3__19allocatorIP2BAE9constructB8ue170006IS2_JRKS2_EEEvPT_DpOT0_, symObjAddr: 0x19440, symBinAddr: 0x10001A680, symSize: 0x20 }
  - { offsetInCU: 0x2CF0A, offset: 0x2CF0A, size: 0x8, addend: 0x0, symName: __ZNKSt3__123__move_backward_trivialclB8ue170006IP2BAS3_Li0EEENS_4pairIPT_PT0_EES6_S6_S8_, symObjAddr: 0x195D0, symBinAddr: 0x10001A810, symSize: 0x40 }
  - { offsetInCU: 0x2CF72, offset: 0x2CF72, size: 0x8, addend: 0x0, symName: __ZNSt3__14pairIPP2BAS3_EC1B8ue170006IRS3_S6_LPv0EEEOT_OT0_, symObjAddr: 0x196B0, symBinAddr: 0x10001A8F0, symSize: 0x30 }
  - { offsetInCU: 0x2CFD0, offset: 0x2CFD0, size: 0x8, addend: 0x0, symName: __ZNSt3__14pairIPP2BAS3_EC2B8ue170006IRS3_S6_LPv0EEEOT_OT0_, symObjAddr: 0x196E0, symBinAddr: 0x10001A920, symSize: 0x30 }
  - { offsetInCU: 0x2D02E, offset: 0x2D02E, size: 0x8, addend: 0x0, symName: __ZNSt3__114__split_bufferIP2BARNS_9allocatorIS2_EEEC2EmmS5_, symObjAddr: 0x19710, symBinAddr: 0x10001A950, symSize: 0xD0 }
  - { offsetInCU: 0x2D0A1, offset: 0x2D0A1, size: 0x8, addend: 0x0, symName: __ZNSt3__117__compressed_pairIPP2BARNS_9allocatorIS2_EEEC1B8ue170006IDnS6_EEOT_OT0_, symObjAddr: 0x197E0, symBinAddr: 0x10001AA20, symSize: 0x30 }
  - { offsetInCU: 0x2D0F9, offset: 0x2D0F9, size: 0x8, addend: 0x0, symName: __ZNSt3__117__compressed_pairIPP2BARNS_9allocatorIS2_EEEC2B8ue170006IDnS6_EEOT_OT0_, symObjAddr: 0x19850, symBinAddr: 0x10001AA90, symSize: 0x40 }
  - { offsetInCU: 0x2D151, offset: 0x2D151, size: 0x8, addend: 0x0, symName: __ZNSt3__122__compressed_pair_elemIRNS_9allocatorIP2BAEELi1ELb0EEC2B8ue170006IS5_vEEOT_, symObjAddr: 0x19890, symBinAddr: 0x10001AAD0, symSize: 0x20 }
  - { offsetInCU: 0x2D193, offset: 0x2D193, size: 0x8, addend: 0x0, symName: __ZNSt3__19allocatorIP2BAE8allocateB8ue170006Em, symObjAddr: 0x198B0, symBinAddr: 0x10001AAF0, symSize: 0x50 }
  - { offsetInCU: 0x2D1D1, offset: 0x2D1D1, size: 0x8, addend: 0x0, symName: __ZNSt3__116allocator_traitsINS_9allocatorIP2BAEEE8max_sizeB8ue170006IS4_vEEmRKS4_, symObjAddr: 0x19900, symBinAddr: 0x10001AB40, symSize: 0x20 }
  - { offsetInCU: 0x2D1FF, offset: 0x2D1FF, size: 0x8, addend: 0x0, symName: __ZNKSt3__19allocatorIP2BAE8max_sizeB8ue170006Ev, symObjAddr: 0x19920, symBinAddr: 0x10001AB60, symSize: 0x20 }
  - { offsetInCU: 0x2D225, offset: 0x2D225, size: 0x8, addend: 0x0, symName: __ZNSt3__122__allocator_destructorINS_9allocatorI2BAEEEC2B8ue170006ERS3_m, symObjAddr: 0x19940, symBinAddr: 0x10001AB80, symSize: 0x30 }
  - { offsetInCU: 0x2D26B, offset: 0x2D26B, size: 0x8, addend: 0x0, symName: __ZNSt3__110unique_ptrIP2BANS_22__allocator_destructorINS_9allocatorIS1_EEEEEC2B8ue170006ILb1EvEES2_NS_16__dependent_typeINS_27__unique_ptr_deleter_sfinaeIS6_EEXT_EE20__good_rval_ref_typeE, symObjAddr: 0x19970, symBinAddr: 0x10001ABB0, symSize: 0x40 }
  - { offsetInCU: 0x2D2BC, offset: 0x2D2BC, size: 0x8, addend: 0x0, symName: __ZNSt3__117__compressed_pairIP2BANS_22__allocator_destructorINS_9allocatorIS1_EEEEEC1B8ue170006IRS2_S6_EEOT_OT0_, symObjAddr: 0x199B0, symBinAddr: 0x10001ABF0, symSize: 0x30 }
  - { offsetInCU: 0x2D314, offset: 0x2D314, size: 0x8, addend: 0x0, symName: __ZNSt3__117__compressed_pairIP2BANS_22__allocator_destructorINS_9allocatorIS1_EEEEEC2B8ue170006IRS2_S6_EEOT_OT0_, symObjAddr: 0x199E0, symBinAddr: 0x10001AC20, symSize: 0x40 }
  - { offsetInCU: 0x2D36C, offset: 0x2D36C, size: 0x8, addend: 0x0, symName: __ZNSt3__122__compressed_pair_elemIP2BALi0ELb0EEC2B8ue170006IRS2_vEEOT_, symObjAddr: 0x19A20, symBinAddr: 0x10001AC60, symSize: 0x20 }
  - { offsetInCU: 0x2D3AE, offset: 0x2D3AE, size: 0x8, addend: 0x0, symName: __ZNSt3__122__compressed_pair_elemINS_22__allocator_destructorINS_9allocatorI2BAEEEELi1ELb0EEC2B8ue170006IS5_vEEOT_, symObjAddr: 0x19A40, symBinAddr: 0x10001AC80, symSize: 0x30 }
  - { offsetInCU: 0x2D3F0, offset: 0x2D3F0, size: 0x8, addend: 0x0, symName: __ZNKSt3__117__compressed_pairIP2BANS_22__allocator_destructorINS_9allocatorIS1_EEEEE5firstB8ue170006Ev, symObjAddr: 0x19A70, symBinAddr: 0x10001ACB0, symSize: 0x20 }
  - { offsetInCU: 0x2D416, offset: 0x2D416, size: 0x8, addend: 0x0, symName: __ZNSt3__117__compressed_pairIP2BANS_22__allocator_destructorINS_9allocatorIS1_EEEEE5firstB8ue170006Ev, symObjAddr: 0x19A90, symBinAddr: 0x10001ACD0, symSize: 0x20 }
  - { offsetInCU: 0x2D43C, offset: 0x2D43C, size: 0x8, addend: 0x0, symName: __ZNSt3__117__compressed_pairIPP2BANS_9allocatorIS2_EEE5firstB8ue170006Ev, symObjAddr: 0x19AB0, symBinAddr: 0x10001ACF0, symSize: 0x20 }
  - { offsetInCU: 0x2D462, offset: 0x2D462, size: 0x8, addend: 0x0, symName: __ZNSt3__122__compressed_pair_elemIPP2BALi0ELb0EE5__getB8ue170006Ev, symObjAddr: 0x19AD0, symBinAddr: 0x10001AD10, symSize: 0x10 }
  - { offsetInCU: 0x2D488, offset: 0x2D488, size: 0x8, addend: 0x0, symName: __ZNSt3__117__compressed_pairIPP2BARNS_9allocatorIS2_EEE5firstB8ue170006Ev, symObjAddr: 0x19AE0, symBinAddr: 0x10001AD20, symSize: 0x20 }
  - { offsetInCU: 0x2D4AE, offset: 0x2D4AE, size: 0x8, addend: 0x0, symName: __ZNSt3__110unique_ptrIP2BANS_22__allocator_destructorINS_9allocatorIS1_EEEEED2B8ue170006Ev, symObjAddr: 0x19B00, symBinAddr: 0x10001AD40, symSize: 0x20 }
  - { offsetInCU: 0x2D4D8, offset: 0x2D4D8, size: 0x8, addend: 0x0, symName: __ZNSt3__110unique_ptrIP2BANS_22__allocator_destructorINS_9allocatorIS1_EEEEE5resetB8ue170006ES2_, symObjAddr: 0x19B20, symBinAddr: 0x10001AD60, symSize: 0x70 }
  - { offsetInCU: 0x2D51C, offset: 0x2D51C, size: 0x8, addend: 0x0, symName: __ZNSt3__117__compressed_pairIP2BANS_22__allocator_destructorINS_9allocatorIS1_EEEEE6secondB8ue170006Ev, symObjAddr: 0x19B90, symBinAddr: 0x10001ADD0, symSize: 0x20 }
  - { offsetInCU: 0x2D542, offset: 0x2D542, size: 0x8, addend: 0x0, symName: __ZNSt3__122__allocator_destructorINS_9allocatorI2BAEEEclB8ue170006EPS2_, symObjAddr: 0x19BB0, symBinAddr: 0x10001ADF0, symSize: 0x30 }
  - { offsetInCU: 0x2D576, offset: 0x2D576, size: 0x8, addend: 0x0, symName: __ZNSt3__122__compressed_pair_elemINS_22__allocator_destructorINS_9allocatorI2BAEEEELi1ELb0EE5__getB8ue170006Ev, symObjAddr: 0x19BE0, symBinAddr: 0x10001AE20, symSize: 0x10 }
  - { offsetInCU: 0x2D59C, offset: 0x2D59C, size: 0x8, addend: 0x0, symName: __ZNSt3__114__split_bufferIP2BARNS_9allocatorIS2_EEED2Ev, symObjAddr: 0x19BF0, symBinAddr: 0x10001AE30, symSize: 0x70 }
  - { offsetInCU: 0x2D5C8, offset: 0x2D5C8, size: 0x8, addend: 0x0, symName: __ZNSt3__114__split_bufferIP2BARNS_9allocatorIS2_EEE5clearB8ue170006Ev, symObjAddr: 0x19C60, symBinAddr: 0x10001AEA0, symSize: 0x20 }
  - { offsetInCU: 0x2D5EE, offset: 0x2D5EE, size: 0x8, addend: 0x0, symName: __ZNKSt3__114__split_bufferIP2BARNS_9allocatorIS2_EEE8capacityB8ue170006Ev, symObjAddr: 0x19C80, symBinAddr: 0x10001AEC0, symSize: 0x30 }
  - { offsetInCU: 0x2D614, offset: 0x2D614, size: 0x8, addend: 0x0, symName: __ZNSt3__114__split_bufferIP2BARNS_9allocatorIS2_EEE17__destruct_at_endB8ue170006EPS2_, symObjAddr: 0x19CB0, symBinAddr: 0x10001AEF0, symSize: 0x30 }
  - { offsetInCU: 0x2D648, offset: 0x2D648, size: 0x8, addend: 0x0, symName: __ZNSt3__114__split_bufferIP2BARNS_9allocatorIS2_EEE17__destruct_at_endB8ue170006EPS2_NS_17integral_constantIbLb0EEE, symObjAddr: 0x19CE0, symBinAddr: 0x10001AF20, symSize: 0x80 }
  - { offsetInCU: 0x2D688, offset: 0x2D688, size: 0x8, addend: 0x0, symName: __ZNKSt3__114__split_bufferIP2BARNS_9allocatorIS2_EEE9__end_capB8ue170006Ev, symObjAddr: 0x19D60, symBinAddr: 0x10001AFA0, symSize: 0x20 }
  - { offsetInCU: 0x2D6AE, offset: 0x2D6AE, size: 0x8, addend: 0x0, symName: __ZNKSt3__117__compressed_pairIPP2BARNS_9allocatorIS2_EEE5firstB8ue170006Ev, symObjAddr: 0x19D80, symBinAddr: 0x10001AFC0, symSize: 0x20 }
  - { offsetInCU: 0x2D6D4, offset: 0x2D6D4, size: 0x8, addend: 0x0, symName: __ZNKSt3__116reverse_iteratorINS_11__wrap_iterIPK2MAEEE4baseB8ue170006Ev, symObjAddr: 0x19DD0, symBinAddr: 0x10001B010, symSize: 0x20 }
  - { offsetInCU: 0x2D6FA, offset: 0x2D6FA, size: 0x8, addend: 0x0, symName: __ZNKSt3__111__wrap_iterIPK2MAE4baseB8ue170006Ev, symObjAddr: 0x19E30, symBinAddr: 0x10001B070, symSize: 0x20 }
  - { offsetInCU: 0x2D720, offset: 0x2D720, size: 0x8, addend: 0x0, symName: __ZNSt3__111__wrap_iterIPK2MAEmmB8ue170006Ev, symObjAddr: 0x19E50, symBinAddr: 0x10001B090, symSize: 0x20 }
  - { offsetInCU: 0x2D746, offset: 0x2D746, size: 0x8, addend: 0x0, symName: __ZNKSt3__111__wrap_iterIPK2MAEdeB8ue170006Ev, symObjAddr: 0x19E70, symBinAddr: 0x10001B0B0, symSize: 0x20 }
  - { offsetInCU: 0x2D76C, offset: 0x2D76C, size: 0x8, addend: 0x0, symName: __ZNSt3__15dequeI2MANS_9allocatorIS1_EEE9push_backERKS1_, symObjAddr: 0x19E90, symBinAddr: 0x10001B0D0, symSize: 0xA0 }
  - { offsetInCU: 0x2D7B2, offset: 0x2D7B2, size: 0x8, addend: 0x0, symName: __ZNKSt3__15dequeI2MANS_9allocatorIS1_EEE12__back_spareB8ue170006Ev, symObjAddr: 0x19F30, symBinAddr: 0x10001B170, symSize: 0x50 }
  - { offsetInCU: 0x2D7D8, offset: 0x2D7D8, size: 0x8, addend: 0x0, symName: __ZNSt3__15dequeI2MANS_9allocatorIS1_EEE19__add_back_capacityEv, symObjAddr: 0x19F80, symBinAddr: 0x10001B1C0, symSize: 0x3C0 }
  - { offsetInCU: 0x2D88D, offset: 0x2D88D, size: 0x8, addend: 0x0, symName: __ZNKSt3__15dequeI2MANS_9allocatorIS1_EEE24__annotate_increase_backB8ue170006Em, symObjAddr: 0x1A340, symBinAddr: 0x10001B580, symSize: 0x70 }
  - { offsetInCU: 0x2D8C2, offset: 0x2D8C2, size: 0x8, addend: 0x0, symName: __ZNKSt3__15dequeI2MANS_9allocatorIS1_EEE10__capacityB8ue170006Ev, symObjAddr: 0x1A3B0, symBinAddr: 0x10001B5F0, symSize: 0x50 }
  - { offsetInCU: 0x2D8E8, offset: 0x2D8E8, size: 0x8, addend: 0x0, symName: __ZNKSt3__15dequeI2MANS_9allocatorIS1_EEE13__front_spareB8ue170006Ev, symObjAddr: 0x1A400, symBinAddr: 0x10001B640, symSize: 0x20 }
  - { offsetInCU: 0x2D90E, offset: 0x2D90E, size: 0x8, addend: 0x0, symName: __ZNSt3__114__split_bufferIP2MANS_9allocatorIS2_EEE9push_backB8ue170006ERKS2_, symObjAddr: 0x1A420, symBinAddr: 0x10001B660, symSize: 0x290 }
  - { offsetInCU: 0x2D986, offset: 0x2D986, size: 0x8, addend: 0x0, symName: __ZNKSt3__114__split_bufferIP2MANS_9allocatorIS2_EEE12__back_spareB8ue170006Ev, symObjAddr: 0x1A6B0, symBinAddr: 0x10001B8F0, symSize: 0x40 }
  - { offsetInCU: 0x2D9AC, offset: 0x2D9AC, size: 0x8, addend: 0x0, symName: __ZNSt3__114__split_bufferIP2MANS_9allocatorIS2_EEE9push_backEOS2_, symObjAddr: 0x1A6F0, symBinAddr: 0x10001B930, symSize: 0x290 }
  - { offsetInCU: 0x2DA24, offset: 0x2DA24, size: 0x8, addend: 0x0, symName: __ZNSt3__116allocator_traitsINS_9allocatorI2MAEEE8allocateB8ue170006ERS3_m, symObjAddr: 0x1A980, symBinAddr: 0x10001BBC0, symSize: 0x30 }
  - { offsetInCU: 0x2DA57, offset: 0x2DA57, size: 0x8, addend: 0x0, symName: __ZNSt3__114__split_bufferIP2MANS_9allocatorIS2_EEE10push_frontEOS2_, symObjAddr: 0x1A9B0, symBinAddr: 0x10001BBF0, symSize: 0x270 }
  - { offsetInCU: 0x2DACF, offset: 0x2DACF, size: 0x8, addend: 0x0, symName: __ZNSt3__114__split_bufferIP2MARNS_9allocatorIS2_EEEC1EmmS5_, symObjAddr: 0x1AC20, symBinAddr: 0x10001BE60, symSize: 0x40 }
  - { offsetInCU: 0x2DB2A, offset: 0x2DB2A, size: 0x8, addend: 0x0, symName: __ZNSt3__122__allocator_destructorINS_9allocatorI2MAEEEC1B8ue170006ERS3_m, symObjAddr: 0x1AC60, symBinAddr: 0x10001BEA0, symSize: 0x30 }
  - { offsetInCU: 0x2DBD9, offset: 0x2DBD9, size: 0x8, addend: 0x0, symName: __ZNSt3__110unique_ptrIP2MANS_22__allocator_destructorINS_9allocatorIS1_EEEEEC1B8ue170006ILb1EvEES2_NS_16__dependent_typeINS_27__unique_ptr_deleter_sfinaeIS6_EEXT_EE20__good_rval_ref_typeE, symObjAddr: 0x1AC90, symBinAddr: 0x10001BED0, symSize: 0x30 }
  - { offsetInCU: 0x2DC2A, offset: 0x2DC2A, size: 0x8, addend: 0x0, symName: __ZNSt3__114__split_bufferIP2MARNS_9allocatorIS2_EEE9push_backEOS2_, symObjAddr: 0x1ACC0, symBinAddr: 0x10001BF00, symSize: 0x290 }
  - { offsetInCU: 0x2DCA2, offset: 0x2DCA2, size: 0x8, addend: 0x0, symName: __ZNKSt3__110unique_ptrIP2MANS_22__allocator_destructorINS_9allocatorIS1_EEEEE3getB8ue170006Ev, symObjAddr: 0x1AF50, symBinAddr: 0x10001C190, symSize: 0x20 }
  - { offsetInCU: 0x2DCC8, offset: 0x2DCC8, size: 0x8, addend: 0x0, symName: __ZNSt3__110unique_ptrIP2MANS_22__allocator_destructorINS_9allocatorIS1_EEEEE7releaseB8ue170006Ev, symObjAddr: 0x1AF70, symBinAddr: 0x10001C1B0, symSize: 0x40 }
  - { offsetInCU: 0x2DCFD, offset: 0x2DCFD, size: 0x8, addend: 0x0, symName: __ZNSt3__114__split_bufferIP2MARNS_9allocatorIS2_EEE10push_frontERKS2_, symObjAddr: 0x1AFB0, symBinAddr: 0x10001C1F0, symSize: 0x270 }
  - { offsetInCU: 0x2DD75, offset: 0x2DD75, size: 0x8, addend: 0x0, symName: __ZNSt3__114__split_bufferIP2MANS_9allocatorIS2_EEE9__end_capB8ue170006Ev, symObjAddr: 0x1B260, symBinAddr: 0x10001C4A0, symSize: 0x20 }
  - { offsetInCU: 0x2DD9B, offset: 0x2DD9B, size: 0x8, addend: 0x0, symName: __ZNSt3__114__split_bufferIP2MARNS_9allocatorIS2_EEE9__end_capB8ue170006Ev, symObjAddr: 0x1B280, symBinAddr: 0x10001C4C0, symSize: 0x20 }
  - { offsetInCU: 0x2DDC1, offset: 0x2DDC1, size: 0x8, addend: 0x0, symName: __ZNSt3__110unique_ptrIP2MANS_22__allocator_destructorINS_9allocatorIS1_EEEEED1B8ue170006Ev, symObjAddr: 0x1B2A0, symBinAddr: 0x10001C4E0, symSize: 0x20 }
  - { offsetInCU: 0x2DDEB, offset: 0x2DDEB, size: 0x8, addend: 0x0, symName: __ZNSt3__114__split_bufferIP2MARNS_9allocatorIS2_EEED1Ev, symObjAddr: 0x1B2C0, symBinAddr: 0x10001C500, symSize: 0x20 }
  - { offsetInCU: 0x2DE17, offset: 0x2DE17, size: 0x8, addend: 0x0, symName: __ZNSt3__114__split_bufferIP2MARNS_9allocatorIS2_EEE18__construct_at_endINS_13move_iteratorIPS2_EEEENS_9enable_ifIXsr31__has_forward_iterator_categoryIT_EE5valueEvE4typeESC_SC_, symObjAddr: 0x1B320, symBinAddr: 0x10001C560, symSize: 0x60 }
  - { offsetInCU: 0x2DE64, offset: 0x2DE64, size: 0x8, addend: 0x0, symName: __ZNSt3__113move_iteratorIPP2MAEC1B8ue170006ES3_, symObjAddr: 0x1B380, symBinAddr: 0x10001C5C0, symSize: 0x30 }
  - { offsetInCU: 0x2DE9C, offset: 0x2DE9C, size: 0x8, addend: 0x0, symName: __ZNSt3__116allocator_traitsINS_9allocatorIP2MAEEE9constructB8ue170006IS3_JRKS3_EvEEvRS4_PT_DpOT0_, symObjAddr: 0x1B3B0, symBinAddr: 0x10001C5F0, symSize: 0x30 }
  - { offsetInCU: 0x2DF0C, offset: 0x2DF0C, size: 0x8, addend: 0x0, symName: __ZNKSt3__114__move_trivialclB8ue170006IP2MAS3_Li0EEENS_4pairIPT_PT0_EES6_S6_S8_, symObjAddr: 0x1B560, symBinAddr: 0x10001C7A0, symSize: 0x40 }
  - { offsetInCU: 0x2DF79, offset: 0x2DF79, size: 0x8, addend: 0x0, symName: __ZNSt3__14pairIPP2MAS3_EC1B8ue170006IRS3_S3_LPv0EEEOT_OT0_, symObjAddr: 0x1B750, symBinAddr: 0x10001C990, symSize: 0x30 }
  - { offsetInCU: 0x2DFD7, offset: 0x2DFD7, size: 0x8, addend: 0x0, symName: __ZNSt3__14pairIPP2MAS3_EC2B8ue170006IRS3_S3_LPv0EEEOT_OT0_, symObjAddr: 0x1B780, symBinAddr: 0x10001C9C0, symSize: 0x30 }
  - { offsetInCU: 0x2E035, offset: 0x2E035, size: 0x8, addend: 0x0, symName: __ZNSt3__118__unwrap_iter_implIPP2MALb1EE8__unwrapB8ue170006ES3_, symObjAddr: 0x1B7B0, symBinAddr: 0x10001C9F0, symSize: 0x20 }
  - { offsetInCU: 0x2E058, offset: 0x2E058, size: 0x8, addend: 0x0, symName: __ZNSt3__14pairIPP2MAS3_EC1B8ue170006IS3_S3_LPv0EEEOT_OT0_, symObjAddr: 0x1B7D0, symBinAddr: 0x10001CA10, symSize: 0x30 }
  - { offsetInCU: 0x2E0B6, offset: 0x2E0B6, size: 0x8, addend: 0x0, symName: __ZNSt3__14pairIPP2MAS3_EC2B8ue170006IS3_S3_LPv0EEEOT_OT0_, symObjAddr: 0x1B800, symBinAddr: 0x10001CA40, symSize: 0x30 }
  - { offsetInCU: 0x2E114, offset: 0x2E114, size: 0x8, addend: 0x0, symName: __ZNSt3__118__unwrap_iter_implIPP2MALb1EE8__rewrapB8ue170006ES3_S3_, symObjAddr: 0x1B830, symBinAddr: 0x10001CA70, symSize: 0x50 }
  - { offsetInCU: 0x2E145, offset: 0x2E145, size: 0x8, addend: 0x0, symName: __ZNSt3__114__split_bufferIP2MARNS_9allocatorIS2_EEE28__construct_at_end_with_sizeINS_13move_iteratorIPS2_EEEEvT_m, symObjAddr: 0x1B880, symBinAddr: 0x10001CAC0, symSize: 0xE0 }
  - { offsetInCU: 0x2E1AB, offset: 0x2E1AB, size: 0x8, addend: 0x0, symName: __ZNSt3__114__split_bufferIP2MARNS_9allocatorIS2_EEE21_ConstructTransactionC1B8ue170006EPPS2_m, symObjAddr: 0x1B9A0, symBinAddr: 0x10001CBE0, symSize: 0x30 }
  - { offsetInCU: 0x2E1F1, offset: 0x2E1F1, size: 0x8, addend: 0x0, symName: __ZNSt3__116allocator_traitsINS_9allocatorIP2MAEEE9constructB8ue170006IS3_JS3_EvEEvRS4_PT_DpOT0_, symObjAddr: 0x1B9D0, symBinAddr: 0x10001CC10, symSize: 0x30 }
  - { offsetInCU: 0x2E248, offset: 0x2E248, size: 0x8, addend: 0x0, symName: __ZNSt3__114__split_bufferIP2MARNS_9allocatorIS2_EEE7__allocB8ue170006Ev, symObjAddr: 0x1BA00, symBinAddr: 0x10001CC40, symSize: 0x20 }
  - { offsetInCU: 0x2E26E, offset: 0x2E26E, size: 0x8, addend: 0x0, symName: __ZNKSt3__113move_iteratorIPP2MAEdeB8ue170006Ev, symObjAddr: 0x1BA20, symBinAddr: 0x10001CC60, symSize: 0x20 }
  - { offsetInCU: 0x2E294, offset: 0x2E294, size: 0x8, addend: 0x0, symName: __ZNSt3__113move_iteratorIPP2MAEppB8ue170006Ev, symObjAddr: 0x1BA40, symBinAddr: 0x10001CC80, symSize: 0x20 }
  - { offsetInCU: 0x2E2BA, offset: 0x2E2BA, size: 0x8, addend: 0x0, symName: __ZNSt3__114__split_bufferIP2MARNS_9allocatorIS2_EEE21_ConstructTransactionD1B8ue170006Ev, symObjAddr: 0x1BA60, symBinAddr: 0x10001CCA0, symSize: 0x20 }
  - { offsetInCU: 0x2E2E4, offset: 0x2E2E4, size: 0x8, addend: 0x0, symName: __ZNSt3__114__split_bufferIP2MARNS_9allocatorIS2_EEE21_ConstructTransactionC2B8ue170006EPPS2_m, symObjAddr: 0x1BA80, symBinAddr: 0x10001CCC0, symSize: 0x40 }
  - { offsetInCU: 0x2E32A, offset: 0x2E32A, size: 0x8, addend: 0x0, symName: __ZNSt3__19allocatorIP2MAE9constructB8ue170006IS2_JS2_EEEvPT_DpOT0_, symObjAddr: 0x1BAC0, symBinAddr: 0x10001CD00, symSize: 0x20 }
  - { offsetInCU: 0x2E380, offset: 0x2E380, size: 0x8, addend: 0x0, symName: __ZNSt3__117__compressed_pairIPP2MARNS_9allocatorIS2_EEE6secondB8ue170006Ev, symObjAddr: 0x1BAE0, symBinAddr: 0x10001CD20, symSize: 0x20 }
  - { offsetInCU: 0x2E3A6, offset: 0x2E3A6, size: 0x8, addend: 0x0, symName: __ZNSt3__122__compressed_pair_elemIRNS_9allocatorIP2MAEELi1ELb0EE5__getB8ue170006Ev, symObjAddr: 0x1BB00, symBinAddr: 0x10001CD40, symSize: 0x20 }
  - { offsetInCU: 0x2E3CC, offset: 0x2E3CC, size: 0x8, addend: 0x0, symName: __ZNSt3__114__split_bufferIP2MARNS_9allocatorIS2_EEE21_ConstructTransactionD2B8ue170006Ev, symObjAddr: 0x1BB20, symBinAddr: 0x10001CD60, symSize: 0x20 }
  - { offsetInCU: 0x2E3F6, offset: 0x2E3F6, size: 0x8, addend: 0x0, symName: __ZNKSt3__113move_iteratorIPP2MAE4baseB8ue170006Ev, symObjAddr: 0x1BBB0, symBinAddr: 0x10001CDF0, symSize: 0x20 }
  - { offsetInCU: 0x2E41C, offset: 0x2E41C, size: 0x8, addend: 0x0, symName: __ZNSt3__113move_iteratorIPP2MAEC2B8ue170006ES3_, symObjAddr: 0x1BBD0, symBinAddr: 0x10001CE10, symSize: 0x20 }
  - { offsetInCU: 0x2E454, offset: 0x2E454, size: 0x8, addend: 0x0, symName: __ZNSt3__19allocatorIP2MAE9constructB8ue170006IS2_JRKS2_EEEvPT_DpOT0_, symObjAddr: 0x1BBF0, symBinAddr: 0x10001CE30, symSize: 0x20 }
  - { offsetInCU: 0x2E4AA, offset: 0x2E4AA, size: 0x8, addend: 0x0, symName: __ZNKSt3__123__move_backward_trivialclB8ue170006IP2MAS3_Li0EEENS_4pairIPT_PT0_EES6_S6_S8_, symObjAddr: 0x1BD80, symBinAddr: 0x10001CFC0, symSize: 0x40 }
  - { offsetInCU: 0x2E512, offset: 0x2E512, size: 0x8, addend: 0x0, symName: __ZNSt3__14pairIPP2MAS3_EC1B8ue170006IRS3_S6_LPv0EEEOT_OT0_, symObjAddr: 0x1BE60, symBinAddr: 0x10001D0A0, symSize: 0x30 }
  - { offsetInCU: 0x2E570, offset: 0x2E570, size: 0x8, addend: 0x0, symName: __ZNSt3__14pairIPP2MAS3_EC2B8ue170006IRS3_S6_LPv0EEEOT_OT0_, symObjAddr: 0x1BE90, symBinAddr: 0x10001D0D0, symSize: 0x30 }
  - { offsetInCU: 0x2E5CE, offset: 0x2E5CE, size: 0x8, addend: 0x0, symName: __ZNSt3__114__split_bufferIP2MARNS_9allocatorIS2_EEEC2EmmS5_, symObjAddr: 0x1BEC0, symBinAddr: 0x10001D100, symSize: 0xD0 }
  - { offsetInCU: 0x2E641, offset: 0x2E641, size: 0x8, addend: 0x0, symName: __ZNSt3__117__compressed_pairIPP2MARNS_9allocatorIS2_EEEC1B8ue170006IDnS6_EEOT_OT0_, symObjAddr: 0x1BF90, symBinAddr: 0x10001D1D0, symSize: 0x30 }
  - { offsetInCU: 0x2E699, offset: 0x2E699, size: 0x8, addend: 0x0, symName: __ZNSt3__117__compressed_pairIPP2MARNS_9allocatorIS2_EEEC2B8ue170006IDnS6_EEOT_OT0_, symObjAddr: 0x1C000, symBinAddr: 0x10001D240, symSize: 0x40 }
  - { offsetInCU: 0x2E6F1, offset: 0x2E6F1, size: 0x8, addend: 0x0, symName: __ZNSt3__122__compressed_pair_elemIRNS_9allocatorIP2MAEELi1ELb0EEC2B8ue170006IS5_vEEOT_, symObjAddr: 0x1C040, symBinAddr: 0x10001D280, symSize: 0x20 }
  - { offsetInCU: 0x2E733, offset: 0x2E733, size: 0x8, addend: 0x0, symName: __ZNSt3__19allocatorIP2MAE8allocateB8ue170006Em, symObjAddr: 0x1C060, symBinAddr: 0x10001D2A0, symSize: 0x50 }
  - { offsetInCU: 0x2E771, offset: 0x2E771, size: 0x8, addend: 0x0, symName: __ZNSt3__116allocator_traitsINS_9allocatorIP2MAEEE8max_sizeB8ue170006IS4_vEEmRKS4_, symObjAddr: 0x1C0B0, symBinAddr: 0x10001D2F0, symSize: 0x20 }
  - { offsetInCU: 0x2E79F, offset: 0x2E79F, size: 0x8, addend: 0x0, symName: __ZNKSt3__19allocatorIP2MAE8max_sizeB8ue170006Ev, symObjAddr: 0x1C0D0, symBinAddr: 0x10001D310, symSize: 0x20 }
  - { offsetInCU: 0x2E7C5, offset: 0x2E7C5, size: 0x8, addend: 0x0, symName: __ZNSt3__122__allocator_destructorINS_9allocatorI2MAEEEC2B8ue170006ERS3_m, symObjAddr: 0x1C0F0, symBinAddr: 0x10001D330, symSize: 0x30 }
  - { offsetInCU: 0x2E80B, offset: 0x2E80B, size: 0x8, addend: 0x0, symName: __ZNSt3__110unique_ptrIP2MANS_22__allocator_destructorINS_9allocatorIS1_EEEEEC2B8ue170006ILb1EvEES2_NS_16__dependent_typeINS_27__unique_ptr_deleter_sfinaeIS6_EEXT_EE20__good_rval_ref_typeE, symObjAddr: 0x1C120, symBinAddr: 0x10001D360, symSize: 0x40 }
  - { offsetInCU: 0x2E85C, offset: 0x2E85C, size: 0x8, addend: 0x0, symName: __ZNSt3__117__compressed_pairIP2MANS_22__allocator_destructorINS_9allocatorIS1_EEEEEC1B8ue170006IRS2_S6_EEOT_OT0_, symObjAddr: 0x1C160, symBinAddr: 0x10001D3A0, symSize: 0x30 }
  - { offsetInCU: 0x2E8B4, offset: 0x2E8B4, size: 0x8, addend: 0x0, symName: __ZNSt3__117__compressed_pairIP2MANS_22__allocator_destructorINS_9allocatorIS1_EEEEEC2B8ue170006IRS2_S6_EEOT_OT0_, symObjAddr: 0x1C190, symBinAddr: 0x10001D3D0, symSize: 0x40 }
  - { offsetInCU: 0x2E90C, offset: 0x2E90C, size: 0x8, addend: 0x0, symName: __ZNSt3__122__compressed_pair_elemIP2MALi0ELb0EEC2B8ue170006IRS2_vEEOT_, symObjAddr: 0x1C1D0, symBinAddr: 0x10001D410, symSize: 0x20 }
  - { offsetInCU: 0x2E94E, offset: 0x2E94E, size: 0x8, addend: 0x0, symName: __ZNSt3__122__compressed_pair_elemINS_22__allocator_destructorINS_9allocatorI2MAEEEELi1ELb0EEC2B8ue170006IS5_vEEOT_, symObjAddr: 0x1C1F0, symBinAddr: 0x10001D430, symSize: 0x30 }
  - { offsetInCU: 0x2E990, offset: 0x2E990, size: 0x8, addend: 0x0, symName: __ZNKSt3__117__compressed_pairIP2MANS_22__allocator_destructorINS_9allocatorIS1_EEEEE5firstB8ue170006Ev, symObjAddr: 0x1C220, symBinAddr: 0x10001D460, symSize: 0x20 }
  - { offsetInCU: 0x2E9B6, offset: 0x2E9B6, size: 0x8, addend: 0x0, symName: __ZNSt3__117__compressed_pairIP2MANS_22__allocator_destructorINS_9allocatorIS1_EEEEE5firstB8ue170006Ev, symObjAddr: 0x1C240, symBinAddr: 0x10001D480, symSize: 0x20 }
  - { offsetInCU: 0x2E9DC, offset: 0x2E9DC, size: 0x8, addend: 0x0, symName: __ZNSt3__117__compressed_pairIPP2MANS_9allocatorIS2_EEE5firstB8ue170006Ev, symObjAddr: 0x1C260, symBinAddr: 0x10001D4A0, symSize: 0x20 }
  - { offsetInCU: 0x2EA02, offset: 0x2EA02, size: 0x8, addend: 0x0, symName: __ZNSt3__122__compressed_pair_elemIPP2MALi0ELb0EE5__getB8ue170006Ev, symObjAddr: 0x1C280, symBinAddr: 0x10001D4C0, symSize: 0x10 }
  - { offsetInCU: 0x2EA28, offset: 0x2EA28, size: 0x8, addend: 0x0, symName: __ZNSt3__117__compressed_pairIPP2MARNS_9allocatorIS2_EEE5firstB8ue170006Ev, symObjAddr: 0x1C290, symBinAddr: 0x10001D4D0, symSize: 0x20 }
  - { offsetInCU: 0x2EA4E, offset: 0x2EA4E, size: 0x8, addend: 0x0, symName: __ZNSt3__110unique_ptrIP2MANS_22__allocator_destructorINS_9allocatorIS1_EEEEED2B8ue170006Ev, symObjAddr: 0x1C2B0, symBinAddr: 0x10001D4F0, symSize: 0x20 }
  - { offsetInCU: 0x2EA78, offset: 0x2EA78, size: 0x8, addend: 0x0, symName: __ZNSt3__110unique_ptrIP2MANS_22__allocator_destructorINS_9allocatorIS1_EEEEE5resetB8ue170006ES2_, symObjAddr: 0x1C2D0, symBinAddr: 0x10001D510, symSize: 0x70 }
  - { offsetInCU: 0x2EABC, offset: 0x2EABC, size: 0x8, addend: 0x0, symName: __ZNSt3__117__compressed_pairIP2MANS_22__allocator_destructorINS_9allocatorIS1_EEEEE6secondB8ue170006Ev, symObjAddr: 0x1C340, symBinAddr: 0x10001D580, symSize: 0x20 }
  - { offsetInCU: 0x2EAE2, offset: 0x2EAE2, size: 0x8, addend: 0x0, symName: __ZNSt3__122__allocator_destructorINS_9allocatorI2MAEEEclB8ue170006EPS2_, symObjAddr: 0x1C360, symBinAddr: 0x10001D5A0, symSize: 0x30 }
  - { offsetInCU: 0x2EB16, offset: 0x2EB16, size: 0x8, addend: 0x0, symName: __ZNSt3__122__compressed_pair_elemINS_22__allocator_destructorINS_9allocatorI2MAEEEELi1ELb0EE5__getB8ue170006Ev, symObjAddr: 0x1C390, symBinAddr: 0x10001D5D0, symSize: 0x10 }
  - { offsetInCU: 0x2EB3C, offset: 0x2EB3C, size: 0x8, addend: 0x0, symName: __ZNSt3__114__split_bufferIP2MARNS_9allocatorIS2_EEED2Ev, symObjAddr: 0x1C3A0, symBinAddr: 0x10001D5E0, symSize: 0x70 }
  - { offsetInCU: 0x2EB68, offset: 0x2EB68, size: 0x8, addend: 0x0, symName: __ZNSt3__114__split_bufferIP2MARNS_9allocatorIS2_EEE5clearB8ue170006Ev, symObjAddr: 0x1C410, symBinAddr: 0x10001D650, symSize: 0x20 }
  - { offsetInCU: 0x2EB8E, offset: 0x2EB8E, size: 0x8, addend: 0x0, symName: __ZNKSt3__114__split_bufferIP2MARNS_9allocatorIS2_EEE8capacityB8ue170006Ev, symObjAddr: 0x1C430, symBinAddr: 0x10001D670, symSize: 0x30 }
  - { offsetInCU: 0x2EBB4, offset: 0x2EBB4, size: 0x8, addend: 0x0, symName: __ZNSt3__114__split_bufferIP2MARNS_9allocatorIS2_EEE17__destruct_at_endB8ue170006EPS2_, symObjAddr: 0x1C460, symBinAddr: 0x10001D6A0, symSize: 0x30 }
  - { offsetInCU: 0x2EBE8, offset: 0x2EBE8, size: 0x8, addend: 0x0, symName: __ZNSt3__114__split_bufferIP2MARNS_9allocatorIS2_EEE17__destruct_at_endB8ue170006EPS2_NS_17integral_constantIbLb0EEE, symObjAddr: 0x1C490, symBinAddr: 0x10001D6D0, symSize: 0x80 }
  - { offsetInCU: 0x2EC28, offset: 0x2EC28, size: 0x8, addend: 0x0, symName: __ZNKSt3__114__split_bufferIP2MARNS_9allocatorIS2_EEE9__end_capB8ue170006Ev, symObjAddr: 0x1C510, symBinAddr: 0x10001D750, symSize: 0x20 }
  - { offsetInCU: 0x2EC4E, offset: 0x2EC4E, size: 0x8, addend: 0x0, symName: __ZNKSt3__117__compressed_pairIPP2MARNS_9allocatorIS2_EEE5firstB8ue170006Ev, symObjAddr: 0x1C530, symBinAddr: 0x10001D770, symSize: 0x20 }
  - { offsetInCU: 0x2EC74, offset: 0x2EC74, size: 0x8, addend: 0x0, symName: __ZNSt3__15dequeI3PHDNS_9allocatorIS1_EEE9push_backERKS1_, symObjAddr: 0x1C550, symBinAddr: 0x10001D790, symSize: 0xA0 }
  - { offsetInCU: 0x2ECBA, offset: 0x2ECBA, size: 0x8, addend: 0x0, symName: __ZNKSt3__15dequeI3PHDNS_9allocatorIS1_EEE12__back_spareB8ue170006Ev, symObjAddr: 0x1C5F0, symBinAddr: 0x10001D830, symSize: 0x50 }
  - { offsetInCU: 0x2ECE0, offset: 0x2ECE0, size: 0x8, addend: 0x0, symName: __ZNSt3__15dequeI3PHDNS_9allocatorIS1_EEE19__add_back_capacityEv, symObjAddr: 0x1C640, symBinAddr: 0x10001D880, symSize: 0x3C0 }
  - { offsetInCU: 0x2ED95, offset: 0x2ED95, size: 0x8, addend: 0x0, symName: __ZNKSt3__15dequeI3PHDNS_9allocatorIS1_EEE24__annotate_increase_backB8ue170006Em, symObjAddr: 0x1CA00, symBinAddr: 0x10001DC40, symSize: 0x70 }
  - { offsetInCU: 0x2EDCA, offset: 0x2EDCA, size: 0x8, addend: 0x0, symName: __ZNKSt3__15dequeI3PHDNS_9allocatorIS1_EEE10__capacityB8ue170006Ev, symObjAddr: 0x1CA70, symBinAddr: 0x10001DCB0, symSize: 0x50 }
  - { offsetInCU: 0x2EDF0, offset: 0x2EDF0, size: 0x8, addend: 0x0, symName: __ZNKSt3__15dequeI3PHDNS_9allocatorIS1_EEE13__front_spareB8ue170006Ev, symObjAddr: 0x1CAC0, symBinAddr: 0x10001DD00, symSize: 0x20 }
  - { offsetInCU: 0x2EE16, offset: 0x2EE16, size: 0x8, addend: 0x0, symName: __ZNSt3__114__split_bufferIP3PHDNS_9allocatorIS2_EEE9push_backB8ue170006ERKS2_, symObjAddr: 0x1CAE0, symBinAddr: 0x10001DD20, symSize: 0x290 }
  - { offsetInCU: 0x2EE8E, offset: 0x2EE8E, size: 0x8, addend: 0x0, symName: __ZNKSt3__114__split_bufferIP3PHDNS_9allocatorIS2_EEE12__back_spareB8ue170006Ev, symObjAddr: 0x1CD70, symBinAddr: 0x10001DFB0, symSize: 0x40 }
  - { offsetInCU: 0x2EEB4, offset: 0x2EEB4, size: 0x8, addend: 0x0, symName: __ZNSt3__114__split_bufferIP3PHDNS_9allocatorIS2_EEE9push_backEOS2_, symObjAddr: 0x1CDB0, symBinAddr: 0x10001DFF0, symSize: 0x290 }
  - { offsetInCU: 0x2EF2C, offset: 0x2EF2C, size: 0x8, addend: 0x0, symName: __ZNSt3__116allocator_traitsINS_9allocatorI3PHDEEE8allocateB8ue170006ERS3_m, symObjAddr: 0x1D040, symBinAddr: 0x10001E280, symSize: 0x30 }
  - { offsetInCU: 0x2EF5F, offset: 0x2EF5F, size: 0x8, addend: 0x0, symName: __ZNSt3__114__split_bufferIP3PHDNS_9allocatorIS2_EEE10push_frontEOS2_, symObjAddr: 0x1D070, symBinAddr: 0x10001E2B0, symSize: 0x270 }
  - { offsetInCU: 0x2EFD7, offset: 0x2EFD7, size: 0x8, addend: 0x0, symName: __ZNSt3__114__split_bufferIP3PHDRNS_9allocatorIS2_EEEC1EmmS5_, symObjAddr: 0x1D2E0, symBinAddr: 0x10001E520, symSize: 0x40 }
  - { offsetInCU: 0x2F032, offset: 0x2F032, size: 0x8, addend: 0x0, symName: __ZNSt3__122__allocator_destructorINS_9allocatorI3PHDEEEC1B8ue170006ERS3_m, symObjAddr: 0x1D320, symBinAddr: 0x10001E560, symSize: 0x30 }
  - { offsetInCU: 0x2F0E1, offset: 0x2F0E1, size: 0x8, addend: 0x0, symName: __ZNSt3__110unique_ptrIP3PHDNS_22__allocator_destructorINS_9allocatorIS1_EEEEEC1B8ue170006ILb1EvEES2_NS_16__dependent_typeINS_27__unique_ptr_deleter_sfinaeIS6_EEXT_EE20__good_rval_ref_typeE, symObjAddr: 0x1D350, symBinAddr: 0x10001E590, symSize: 0x30 }
  - { offsetInCU: 0x2F132, offset: 0x2F132, size: 0x8, addend: 0x0, symName: __ZNSt3__114__split_bufferIP3PHDRNS_9allocatorIS2_EEE9push_backEOS2_, symObjAddr: 0x1D380, symBinAddr: 0x10001E5C0, symSize: 0x290 }
  - { offsetInCU: 0x2F1AA, offset: 0x2F1AA, size: 0x8, addend: 0x0, symName: __ZNKSt3__110unique_ptrIP3PHDNS_22__allocator_destructorINS_9allocatorIS1_EEEEE3getB8ue170006Ev, symObjAddr: 0x1D610, symBinAddr: 0x10001E850, symSize: 0x20 }
  - { offsetInCU: 0x2F1D0, offset: 0x2F1D0, size: 0x8, addend: 0x0, symName: __ZNSt3__110unique_ptrIP3PHDNS_22__allocator_destructorINS_9allocatorIS1_EEEEE7releaseB8ue170006Ev, symObjAddr: 0x1D630, symBinAddr: 0x10001E870, symSize: 0x40 }
  - { offsetInCU: 0x2F205, offset: 0x2F205, size: 0x8, addend: 0x0, symName: __ZNSt3__114__split_bufferIP3PHDRNS_9allocatorIS2_EEE10push_frontERKS2_, symObjAddr: 0x1D670, symBinAddr: 0x10001E8B0, symSize: 0x270 }
  - { offsetInCU: 0x2F27D, offset: 0x2F27D, size: 0x8, addend: 0x0, symName: __ZNSt3__114__split_bufferIP3PHDNS_9allocatorIS2_EEE9__end_capB8ue170006Ev, symObjAddr: 0x1D920, symBinAddr: 0x10001EB60, symSize: 0x20 }
  - { offsetInCU: 0x2F2A3, offset: 0x2F2A3, size: 0x8, addend: 0x0, symName: __ZNSt3__114__split_bufferIP3PHDRNS_9allocatorIS2_EEE9__end_capB8ue170006Ev, symObjAddr: 0x1D940, symBinAddr: 0x10001EB80, symSize: 0x20 }
  - { offsetInCU: 0x2F2C9, offset: 0x2F2C9, size: 0x8, addend: 0x0, symName: __ZNSt3__110unique_ptrIP3PHDNS_22__allocator_destructorINS_9allocatorIS1_EEEEED1B8ue170006Ev, symObjAddr: 0x1D960, symBinAddr: 0x10001EBA0, symSize: 0x20 }
  - { offsetInCU: 0x2F2F3, offset: 0x2F2F3, size: 0x8, addend: 0x0, symName: __ZNSt3__114__split_bufferIP3PHDRNS_9allocatorIS2_EEED1Ev, symObjAddr: 0x1D980, symBinAddr: 0x10001EBC0, symSize: 0x20 }
  - { offsetInCU: 0x2F31F, offset: 0x2F31F, size: 0x8, addend: 0x0, symName: __ZNSt3__114__split_bufferIP3PHDRNS_9allocatorIS2_EEE18__construct_at_endINS_13move_iteratorIPS2_EEEENS_9enable_ifIXsr31__has_forward_iterator_categoryIT_EE5valueEvE4typeESC_SC_, symObjAddr: 0x1D9E0, symBinAddr: 0x10001EC20, symSize: 0x60 }
  - { offsetInCU: 0x2F36C, offset: 0x2F36C, size: 0x8, addend: 0x0, symName: __ZNSt3__113move_iteratorIPP3PHDEC1B8ue170006ES3_, symObjAddr: 0x1DA40, symBinAddr: 0x10001EC80, symSize: 0x30 }
  - { offsetInCU: 0x2F3A4, offset: 0x2F3A4, size: 0x8, addend: 0x0, symName: __ZNSt3__116allocator_traitsINS_9allocatorIP3PHDEEE9constructB8ue170006IS3_JRKS3_EvEEvRS4_PT_DpOT0_, symObjAddr: 0x1DA70, symBinAddr: 0x10001ECB0, symSize: 0x30 }
  - { offsetInCU: 0x2F414, offset: 0x2F414, size: 0x8, addend: 0x0, symName: __ZNKSt3__114__move_trivialclB8ue170006IP3PHDS3_Li0EEENS_4pairIPT_PT0_EES6_S6_S8_, symObjAddr: 0x1DC20, symBinAddr: 0x10001EE60, symSize: 0x40 }
  - { offsetInCU: 0x2F481, offset: 0x2F481, size: 0x8, addend: 0x0, symName: __ZNSt3__14pairIPP3PHDS3_EC1B8ue170006IRS3_S3_LPv0EEEOT_OT0_, symObjAddr: 0x1DE10, symBinAddr: 0x10001F050, symSize: 0x30 }
  - { offsetInCU: 0x2F4DF, offset: 0x2F4DF, size: 0x8, addend: 0x0, symName: __ZNSt3__14pairIPP3PHDS3_EC2B8ue170006IRS3_S3_LPv0EEEOT_OT0_, symObjAddr: 0x1DE40, symBinAddr: 0x10001F080, symSize: 0x30 }
  - { offsetInCU: 0x2F53D, offset: 0x2F53D, size: 0x8, addend: 0x0, symName: __ZNSt3__118__unwrap_iter_implIPP3PHDLb1EE8__unwrapB8ue170006ES3_, symObjAddr: 0x1DE70, symBinAddr: 0x10001F0B0, symSize: 0x20 }
  - { offsetInCU: 0x2F560, offset: 0x2F560, size: 0x8, addend: 0x0, symName: __ZNSt3__14pairIPP3PHDS3_EC1B8ue170006IS3_S3_LPv0EEEOT_OT0_, symObjAddr: 0x1DE90, symBinAddr: 0x10001F0D0, symSize: 0x30 }
  - { offsetInCU: 0x2F5BE, offset: 0x2F5BE, size: 0x8, addend: 0x0, symName: __ZNSt3__14pairIPP3PHDS3_EC2B8ue170006IS3_S3_LPv0EEEOT_OT0_, symObjAddr: 0x1DEC0, symBinAddr: 0x10001F100, symSize: 0x30 }
  - { offsetInCU: 0x2F61C, offset: 0x2F61C, size: 0x8, addend: 0x0, symName: __ZNSt3__118__unwrap_iter_implIPP3PHDLb1EE8__rewrapB8ue170006ES3_S3_, symObjAddr: 0x1DEF0, symBinAddr: 0x10001F130, symSize: 0x50 }
  - { offsetInCU: 0x2F64D, offset: 0x2F64D, size: 0x8, addend: 0x0, symName: __ZNSt3__114__split_bufferIP3PHDRNS_9allocatorIS2_EEE28__construct_at_end_with_sizeINS_13move_iteratorIPS2_EEEEvT_m, symObjAddr: 0x1DF40, symBinAddr: 0x10001F180, symSize: 0xE0 }
  - { offsetInCU: 0x2F6B3, offset: 0x2F6B3, size: 0x8, addend: 0x0, symName: __ZNSt3__114__split_bufferIP3PHDRNS_9allocatorIS2_EEE21_ConstructTransactionC1B8ue170006EPPS2_m, symObjAddr: 0x1E060, symBinAddr: 0x10001F2A0, symSize: 0x30 }
  - { offsetInCU: 0x2F6F9, offset: 0x2F6F9, size: 0x8, addend: 0x0, symName: __ZNSt3__116allocator_traitsINS_9allocatorIP3PHDEEE9constructB8ue170006IS3_JS3_EvEEvRS4_PT_DpOT0_, symObjAddr: 0x1E090, symBinAddr: 0x10001F2D0, symSize: 0x30 }
  - { offsetInCU: 0x2F750, offset: 0x2F750, size: 0x8, addend: 0x0, symName: __ZNSt3__114__split_bufferIP3PHDRNS_9allocatorIS2_EEE7__allocB8ue170006Ev, symObjAddr: 0x1E0C0, symBinAddr: 0x10001F300, symSize: 0x20 }
  - { offsetInCU: 0x2F776, offset: 0x2F776, size: 0x8, addend: 0x0, symName: __ZNKSt3__113move_iteratorIPP3PHDEdeB8ue170006Ev, symObjAddr: 0x1E0E0, symBinAddr: 0x10001F320, symSize: 0x20 }
  - { offsetInCU: 0x2F79C, offset: 0x2F79C, size: 0x8, addend: 0x0, symName: __ZNSt3__113move_iteratorIPP3PHDEppB8ue170006Ev, symObjAddr: 0x1E100, symBinAddr: 0x10001F340, symSize: 0x20 }
  - { offsetInCU: 0x2F7C2, offset: 0x2F7C2, size: 0x8, addend: 0x0, symName: __ZNSt3__114__split_bufferIP3PHDRNS_9allocatorIS2_EEE21_ConstructTransactionD1B8ue170006Ev, symObjAddr: 0x1E120, symBinAddr: 0x10001F360, symSize: 0x20 }
  - { offsetInCU: 0x2F7EC, offset: 0x2F7EC, size: 0x8, addend: 0x0, symName: __ZNSt3__114__split_bufferIP3PHDRNS_9allocatorIS2_EEE21_ConstructTransactionC2B8ue170006EPPS2_m, symObjAddr: 0x1E140, symBinAddr: 0x10001F380, symSize: 0x40 }
  - { offsetInCU: 0x2F832, offset: 0x2F832, size: 0x8, addend: 0x0, symName: __ZNSt3__19allocatorIP3PHDE9constructB8ue170006IS2_JS2_EEEvPT_DpOT0_, symObjAddr: 0x1E180, symBinAddr: 0x10001F3C0, symSize: 0x20 }
  - { offsetInCU: 0x2F888, offset: 0x2F888, size: 0x8, addend: 0x0, symName: __ZNSt3__117__compressed_pairIPP3PHDRNS_9allocatorIS2_EEE6secondB8ue170006Ev, symObjAddr: 0x1E1A0, symBinAddr: 0x10001F3E0, symSize: 0x20 }
  - { offsetInCU: 0x2F8AE, offset: 0x2F8AE, size: 0x8, addend: 0x0, symName: __ZNSt3__122__compressed_pair_elemIRNS_9allocatorIP3PHDEELi1ELb0EE5__getB8ue170006Ev, symObjAddr: 0x1E1C0, symBinAddr: 0x10001F400, symSize: 0x20 }
  - { offsetInCU: 0x2F8D4, offset: 0x2F8D4, size: 0x8, addend: 0x0, symName: __ZNSt3__114__split_bufferIP3PHDRNS_9allocatorIS2_EEE21_ConstructTransactionD2B8ue170006Ev, symObjAddr: 0x1E1E0, symBinAddr: 0x10001F420, symSize: 0x20 }
  - { offsetInCU: 0x2F8FE, offset: 0x2F8FE, size: 0x8, addend: 0x0, symName: __ZNKSt3__113move_iteratorIPP3PHDE4baseB8ue170006Ev, symObjAddr: 0x1E270, symBinAddr: 0x10001F4B0, symSize: 0x20 }
  - { offsetInCU: 0x2F924, offset: 0x2F924, size: 0x8, addend: 0x0, symName: __ZNSt3__113move_iteratorIPP3PHDEC2B8ue170006ES3_, symObjAddr: 0x1E290, symBinAddr: 0x10001F4D0, symSize: 0x20 }
  - { offsetInCU: 0x2F95C, offset: 0x2F95C, size: 0x8, addend: 0x0, symName: __ZNSt3__19allocatorIP3PHDE9constructB8ue170006IS2_JRKS2_EEEvPT_DpOT0_, symObjAddr: 0x1E2B0, symBinAddr: 0x10001F4F0, symSize: 0x20 }
  - { offsetInCU: 0x2F9B2, offset: 0x2F9B2, size: 0x8, addend: 0x0, symName: __ZNKSt3__123__move_backward_trivialclB8ue170006IP3PHDS3_Li0EEENS_4pairIPT_PT0_EES6_S6_S8_, symObjAddr: 0x1E440, symBinAddr: 0x10001F680, symSize: 0x40 }
  - { offsetInCU: 0x2FA1A, offset: 0x2FA1A, size: 0x8, addend: 0x0, symName: __ZNSt3__14pairIPP3PHDS3_EC1B8ue170006IRS3_S6_LPv0EEEOT_OT0_, symObjAddr: 0x1E520, symBinAddr: 0x10001F760, symSize: 0x30 }
  - { offsetInCU: 0x2FA78, offset: 0x2FA78, size: 0x8, addend: 0x0, symName: __ZNSt3__14pairIPP3PHDS3_EC2B8ue170006IRS3_S6_LPv0EEEOT_OT0_, symObjAddr: 0x1E550, symBinAddr: 0x10001F790, symSize: 0x30 }
  - { offsetInCU: 0x2FAD6, offset: 0x2FAD6, size: 0x8, addend: 0x0, symName: __ZNSt3__114__split_bufferIP3PHDRNS_9allocatorIS2_EEEC2EmmS5_, symObjAddr: 0x1E580, symBinAddr: 0x10001F7C0, symSize: 0xD0 }
  - { offsetInCU: 0x2FB49, offset: 0x2FB49, size: 0x8, addend: 0x0, symName: __ZNSt3__117__compressed_pairIPP3PHDRNS_9allocatorIS2_EEEC1B8ue170006IDnS6_EEOT_OT0_, symObjAddr: 0x1E650, symBinAddr: 0x10001F890, symSize: 0x30 }
  - { offsetInCU: 0x2FBA1, offset: 0x2FBA1, size: 0x8, addend: 0x0, symName: __ZNSt3__117__compressed_pairIPP3PHDRNS_9allocatorIS2_EEEC2B8ue170006IDnS6_EEOT_OT0_, symObjAddr: 0x1E6C0, symBinAddr: 0x10001F900, symSize: 0x40 }
  - { offsetInCU: 0x2FBF9, offset: 0x2FBF9, size: 0x8, addend: 0x0, symName: __ZNSt3__122__compressed_pair_elemIRNS_9allocatorIP3PHDEELi1ELb0EEC2B8ue170006IS5_vEEOT_, symObjAddr: 0x1E700, symBinAddr: 0x10001F940, symSize: 0x20 }
  - { offsetInCU: 0x2FC3B, offset: 0x2FC3B, size: 0x8, addend: 0x0, symName: __ZNSt3__19allocatorIP3PHDE8allocateB8ue170006Em, symObjAddr: 0x1E720, symBinAddr: 0x10001F960, symSize: 0x50 }
  - { offsetInCU: 0x2FC79, offset: 0x2FC79, size: 0x8, addend: 0x0, symName: __ZNSt3__116allocator_traitsINS_9allocatorIP3PHDEEE8max_sizeB8ue170006IS4_vEEmRKS4_, symObjAddr: 0x1E770, symBinAddr: 0x10001F9B0, symSize: 0x20 }
  - { offsetInCU: 0x2FCA7, offset: 0x2FCA7, size: 0x8, addend: 0x0, symName: __ZNKSt3__19allocatorIP3PHDE8max_sizeB8ue170006Ev, symObjAddr: 0x1E790, symBinAddr: 0x10001F9D0, symSize: 0x20 }
  - { offsetInCU: 0x2FCCD, offset: 0x2FCCD, size: 0x8, addend: 0x0, symName: __ZNSt3__122__allocator_destructorINS_9allocatorI3PHDEEEC2B8ue170006ERS3_m, symObjAddr: 0x1E7B0, symBinAddr: 0x10001F9F0, symSize: 0x30 }
  - { offsetInCU: 0x2FD13, offset: 0x2FD13, size: 0x8, addend: 0x0, symName: __ZNSt3__110unique_ptrIP3PHDNS_22__allocator_destructorINS_9allocatorIS1_EEEEEC2B8ue170006ILb1EvEES2_NS_16__dependent_typeINS_27__unique_ptr_deleter_sfinaeIS6_EEXT_EE20__good_rval_ref_typeE, symObjAddr: 0x1E7E0, symBinAddr: 0x10001FA20, symSize: 0x40 }
  - { offsetInCU: 0x2FD64, offset: 0x2FD64, size: 0x8, addend: 0x0, symName: __ZNSt3__117__compressed_pairIP3PHDNS_22__allocator_destructorINS_9allocatorIS1_EEEEEC1B8ue170006IRS2_S6_EEOT_OT0_, symObjAddr: 0x1E820, symBinAddr: 0x10001FA60, symSize: 0x30 }
  - { offsetInCU: 0x2FDBC, offset: 0x2FDBC, size: 0x8, addend: 0x0, symName: __ZNSt3__117__compressed_pairIP3PHDNS_22__allocator_destructorINS_9allocatorIS1_EEEEEC2B8ue170006IRS2_S6_EEOT_OT0_, symObjAddr: 0x1E850, symBinAddr: 0x10001FA90, symSize: 0x40 }
  - { offsetInCU: 0x2FE14, offset: 0x2FE14, size: 0x8, addend: 0x0, symName: __ZNSt3__122__compressed_pair_elemIP3PHDLi0ELb0EEC2B8ue170006IRS2_vEEOT_, symObjAddr: 0x1E890, symBinAddr: 0x10001FAD0, symSize: 0x20 }
  - { offsetInCU: 0x2FE56, offset: 0x2FE56, size: 0x8, addend: 0x0, symName: __ZNSt3__122__compressed_pair_elemINS_22__allocator_destructorINS_9allocatorI3PHDEEEELi1ELb0EEC2B8ue170006IS5_vEEOT_, symObjAddr: 0x1E8B0, symBinAddr: 0x10001FAF0, symSize: 0x30 }
  - { offsetInCU: 0x2FE98, offset: 0x2FE98, size: 0x8, addend: 0x0, symName: __ZNKSt3__117__compressed_pairIP3PHDNS_22__allocator_destructorINS_9allocatorIS1_EEEEE5firstB8ue170006Ev, symObjAddr: 0x1E8E0, symBinAddr: 0x10001FB20, symSize: 0x20 }
  - { offsetInCU: 0x2FEBE, offset: 0x2FEBE, size: 0x8, addend: 0x0, symName: __ZNSt3__117__compressed_pairIP3PHDNS_22__allocator_destructorINS_9allocatorIS1_EEEEE5firstB8ue170006Ev, symObjAddr: 0x1E900, symBinAddr: 0x10001FB40, symSize: 0x20 }
  - { offsetInCU: 0x2FEE4, offset: 0x2FEE4, size: 0x8, addend: 0x0, symName: __ZNSt3__117__compressed_pairIPP3PHDNS_9allocatorIS2_EEE5firstB8ue170006Ev, symObjAddr: 0x1E920, symBinAddr: 0x10001FB60, symSize: 0x20 }
  - { offsetInCU: 0x2FF0A, offset: 0x2FF0A, size: 0x8, addend: 0x0, symName: __ZNSt3__122__compressed_pair_elemIPP3PHDLi0ELb0EE5__getB8ue170006Ev, symObjAddr: 0x1E940, symBinAddr: 0x10001FB80, symSize: 0x10 }
  - { offsetInCU: 0x2FF30, offset: 0x2FF30, size: 0x8, addend: 0x0, symName: __ZNSt3__117__compressed_pairIPP3PHDRNS_9allocatorIS2_EEE5firstB8ue170006Ev, symObjAddr: 0x1E950, symBinAddr: 0x10001FB90, symSize: 0x20 }
  - { offsetInCU: 0x2FF56, offset: 0x2FF56, size: 0x8, addend: 0x0, symName: __ZNSt3__110unique_ptrIP3PHDNS_22__allocator_destructorINS_9allocatorIS1_EEEEED2B8ue170006Ev, symObjAddr: 0x1E970, symBinAddr: 0x10001FBB0, symSize: 0x20 }
  - { offsetInCU: 0x2FF80, offset: 0x2FF80, size: 0x8, addend: 0x0, symName: __ZNSt3__110unique_ptrIP3PHDNS_22__allocator_destructorINS_9allocatorIS1_EEEEE5resetB8ue170006ES2_, symObjAddr: 0x1E990, symBinAddr: 0x10001FBD0, symSize: 0x70 }
  - { offsetInCU: 0x2FFC4, offset: 0x2FFC4, size: 0x8, addend: 0x0, symName: __ZNSt3__117__compressed_pairIP3PHDNS_22__allocator_destructorINS_9allocatorIS1_EEEEE6secondB8ue170006Ev, symObjAddr: 0x1EA00, symBinAddr: 0x10001FC40, symSize: 0x20 }
  - { offsetInCU: 0x2FFEA, offset: 0x2FFEA, size: 0x8, addend: 0x0, symName: __ZNSt3__122__allocator_destructorINS_9allocatorI3PHDEEEclB8ue170006EPS2_, symObjAddr: 0x1EA20, symBinAddr: 0x10001FC60, symSize: 0x30 }
  - { offsetInCU: 0x3001E, offset: 0x3001E, size: 0x8, addend: 0x0, symName: __ZNSt3__122__compressed_pair_elemINS_22__allocator_destructorINS_9allocatorI3PHDEEEELi1ELb0EE5__getB8ue170006Ev, symObjAddr: 0x1EA50, symBinAddr: 0x10001FC90, symSize: 0x10 }
  - { offsetInCU: 0x30044, offset: 0x30044, size: 0x8, addend: 0x0, symName: __ZNSt3__114__split_bufferIP3PHDRNS_9allocatorIS2_EEED2Ev, symObjAddr: 0x1EA60, symBinAddr: 0x10001FCA0, symSize: 0x70 }
  - { offsetInCU: 0x30070, offset: 0x30070, size: 0x8, addend: 0x0, symName: __ZNSt3__114__split_bufferIP3PHDRNS_9allocatorIS2_EEE5clearB8ue170006Ev, symObjAddr: 0x1EAD0, symBinAddr: 0x10001FD10, symSize: 0x20 }
  - { offsetInCU: 0x30096, offset: 0x30096, size: 0x8, addend: 0x0, symName: __ZNKSt3__114__split_bufferIP3PHDRNS_9allocatorIS2_EEE8capacityB8ue170006Ev, symObjAddr: 0x1EAF0, symBinAddr: 0x10001FD30, symSize: 0x30 }
  - { offsetInCU: 0x300BC, offset: 0x300BC, size: 0x8, addend: 0x0, symName: __ZNSt3__114__split_bufferIP3PHDRNS_9allocatorIS2_EEE17__destruct_at_endB8ue170006EPS2_, symObjAddr: 0x1EB20, symBinAddr: 0x10001FD60, symSize: 0x30 }
  - { offsetInCU: 0x300F0, offset: 0x300F0, size: 0x8, addend: 0x0, symName: __ZNSt3__114__split_bufferIP3PHDRNS_9allocatorIS2_EEE17__destruct_at_endB8ue170006EPS2_NS_17integral_constantIbLb0EEE, symObjAddr: 0x1EB50, symBinAddr: 0x10001FD90, symSize: 0x80 }
  - { offsetInCU: 0x30130, offset: 0x30130, size: 0x8, addend: 0x0, symName: __ZNKSt3__114__split_bufferIP3PHDRNS_9allocatorIS2_EEE9__end_capB8ue170006Ev, symObjAddr: 0x1EBD0, symBinAddr: 0x10001FE10, symSize: 0x20 }
  - { offsetInCU: 0x30156, offset: 0x30156, size: 0x8, addend: 0x0, symName: __ZNKSt3__117__compressed_pairIPP3PHDRNS_9allocatorIS2_EEE5firstB8ue170006Ev, symObjAddr: 0x1EBF0, symBinAddr: 0x10001FE30, symSize: 0x20 }
  - { offsetInCU: 0x3017C, offset: 0x3017C, size: 0x8, addend: 0x0, symName: __ZNSt3__15dequeI2BANS_9allocatorIS1_EEE5frontEv, symObjAddr: 0x1EC10, symBinAddr: 0x10001FE50, symSize: 0x60 }
  - { offsetInCU: 0x301A4, offset: 0x301A4, size: 0x8, addend: 0x0, symName: __ZNSt3__15dequeI2BANS_9allocatorIS1_EEE9pop_frontEv, symObjAddr: 0x1EC70, symBinAddr: 0x10001FEB0, symSize: 0xD0 }
  - { offsetInCU: 0x301F9, offset: 0x301F9, size: 0x8, addend: 0x0, symName: __ZNKSt3__15dequeI2BANS_9allocatorIS1_EEE23__annotate_shrink_frontB8ue170006Emm, symObjAddr: 0x1ED40, symBinAddr: 0x10001FF80, symSize: 0x70 }
  - { offsetInCU: 0x3023D, offset: 0x3023D, size: 0x8, addend: 0x0, symName: __ZNSt3__15dequeI2BANS_9allocatorIS1_EEE26__maybe_remove_front_spareB8ue170006Eb, symObjAddr: 0x1EDB0, symBinAddr: 0x10001FFF0, symSize: 0xC0 }
  - { offsetInCU: 0x30272, offset: 0x30272, size: 0x8, addend: 0x0, symName: __ZNKSt3__15dequeI2BANS_9allocatorIS1_EEE20__front_spare_blocksB8ue170006Ev, symObjAddr: 0x1EE70, symBinAddr: 0x1000200B0, symSize: 0x30 }
  - { offsetInCU: 0x30298, offset: 0x30298, size: 0x8, addend: 0x0, symName: __ZNSt3__15dequeI2MANS_9allocatorIS1_EEE5frontEv, symObjAddr: 0x1EEA0, symBinAddr: 0x1000200E0, symSize: 0x60 }
  - { offsetInCU: 0x302C0, offset: 0x302C0, size: 0x8, addend: 0x0, symName: __ZNSt3__15dequeI2MANS_9allocatorIS1_EEE9pop_frontEv, symObjAddr: 0x1EF00, symBinAddr: 0x100020140, symSize: 0xD0 }
  - { offsetInCU: 0x30315, offset: 0x30315, size: 0x8, addend: 0x0, symName: __ZNKSt3__15dequeI2MANS_9allocatorIS1_EEE23__annotate_shrink_frontB8ue170006Emm, symObjAddr: 0x1EFD0, symBinAddr: 0x100020210, symSize: 0x70 }
  - { offsetInCU: 0x30359, offset: 0x30359, size: 0x8, addend: 0x0, symName: __ZNSt3__15dequeI2MANS_9allocatorIS1_EEE26__maybe_remove_front_spareB8ue170006Eb, symObjAddr: 0x1F040, symBinAddr: 0x100020280, symSize: 0xC0 }
  - { offsetInCU: 0x3038E, offset: 0x3038E, size: 0x8, addend: 0x0, symName: __ZNKSt3__15dequeI2MANS_9allocatorIS1_EEE20__front_spare_blocksB8ue170006Ev, symObjAddr: 0x1F100, symBinAddr: 0x100020340, symSize: 0x30 }
  - { offsetInCU: 0x303B4, offset: 0x303B4, size: 0x8, addend: 0x0, symName: __ZNSt3__15dequeI3PHDNS_9allocatorIS1_EEE4backEv, symObjAddr: 0x1F130, symBinAddr: 0x100020370, symSize: 0x70 }
  - { offsetInCU: 0x303EB, offset: 0x303EB, size: 0x8, addend: 0x0, symName: __ZNSt3__15dequeI3PHDNS_9allocatorIS1_EEE8pop_backEv, symObjAddr: 0x1F1A0, symBinAddr: 0x1000203E0, symSize: 0xE0 }
  - { offsetInCU: 0x3044F, offset: 0x3044F, size: 0x8, addend: 0x0, symName: __ZNKSt3__15dequeI3PHDNS_9allocatorIS1_EEE22__annotate_shrink_backB8ue170006Emm, symObjAddr: 0x1F280, symBinAddr: 0x1000204C0, symSize: 0x50 }
  - { offsetInCU: 0x30493, offset: 0x30493, size: 0x8, addend: 0x0, symName: __ZNSt3__15dequeI3PHDNS_9allocatorIS1_EEE25__maybe_remove_back_spareB8ue170006Eb, symObjAddr: 0x1F2D0, symBinAddr: 0x100020510, symSize: 0xB0 }
  - { offsetInCU: 0x304C8, offset: 0x304C8, size: 0x8, addend: 0x0, symName: __ZNKSt3__15dequeI3PHDNS_9allocatorIS1_EEE19__back_spare_blocksB8ue170006Ev, symObjAddr: 0x1F380, symBinAddr: 0x1000205C0, symSize: 0x30 }
  - { offsetInCU: 0x304EE, offset: 0x304EE, size: 0x8, addend: 0x0, symName: __ZNSt3__114__split_bufferIP3PHDNS_9allocatorIS2_EEE4backB8ue170006Ev, symObjAddr: 0x1F3B0, symBinAddr: 0x1000205F0, symSize: 0x20 }
  - { offsetInCU: 0x30514, offset: 0x30514, size: 0x8, addend: 0x0, symName: __ZNSt3__114__split_bufferIP3PHDNS_9allocatorIS2_EEE8pop_backB8ue170006Ev, symObjAddr: 0x1F3D0, symBinAddr: 0x100020610, symSize: 0x23 }
...
